   1              		.cpu cortex-m0
   2              		.fpu softvfp
   3              		.eabi_attribute 20, 1
   4              		.eabi_attribute 21, 1
   5              		.eabi_attribute 23, 3
   6              		.eabi_attribute 24, 1
   7              		.eabi_attribute 25, 1
   8              		.eabi_attribute 26, 1
   9              		.eabi_attribute 30, 6
  10              		.eabi_attribute 34, 0
  11              		.eabi_attribute 18, 4
  12              		.code	16
  13              		.file	"llwu.c"
  14              		.text
  15              	.Ltext0:
  16              		.cfi_sections	.debug_frame
  17              		.section	.rodata
  18              		.align	2
  19              	.LC0:
  20 0000 0A20496E 		.ascii	"\012 Invalid LLWU configured pin PTE1/SCI1_RX/I2C1_"
  20      76616C69 
  20      64204C4C 
  20      57552063 
  20      6F6E6669 
  21 0030 53434C20 		.ascii	"SCL /SPI1_SIN\000"
  21      2F535049 
  21      315F5349 
  21      4E00
  22 003e 0000     		.align	2
  23              	.LC2:
  24 0040 0A20496E 		.ascii	"\012 Invalid LLWU configured pin PTE2/SPI1_SCK/SDHC"
  24      76616C69 
  24      64204C4C 
  24      57552063 
  24      6F6E6669 
  25 0070 305F4443 		.ascii	"0_DCLK\000"
  25      4C4B00
  26 0077 00       		.align	2
  27              	.LC4:
  28 0078 0A20496E 		.ascii	"\012 Invalid LLWU configured pin PTE4/SPI1_PCS0/SDH"
  28      76616C69 
  28      64204C4C 
  28      57552063 
  28      6F6E6669 
  29 00a8 43305F44 		.ascii	"C0_D3\000"
  29      3300
  30 00ae 0000     		.align	2
  31              	.LC6:
  32 00b0 0A20496E 		.ascii	"\012 Invalid LLWU configured pin PTA4/FTM0_CH1/NMI/"
  32      76616C69 
  32      64204C4C 
  32      57552063 
  32      6F6E6669 
  33 00e0 455A505F 		.ascii	"EZP_CS\000"
  33      435300
  34 00e7 00       		.align	2
  35              	.LC8:
  36 00e8 0A20496E 		.ascii	"\012 Invalid LLWU configured pin PTA13/FTM1_CH1 /FT"
  36      76616C69 
  36      64204C4C 
  36      57552063 
  36      6F6E6669 
  37 0118 4D315F51 		.ascii	"M1_QD_PHB\000"
  37      445F5048 
  37      4200
  38 0122 0000     		.align	2
  39              	.LC10:
  40 0124 0A204C4C 		.ascii	"\012 LLWU configured pins PTB0/I2C0_SCL/FTM1_CH0/FT"
  40      57552063 
  40      6F6E6669 
  40      67757265 
  40      64207069 
  41 0154 4D315F51 		.ascii	"M1_QD_PHA is LLWU wakeup source \000"
  41      445F5048 
  41      41206973 
  41      204C4C57 
  41      55207761 
  42 0175 000000   		.align	2
  43              	.LC12:
  44 0178 0A204C4C 		.ascii	"\012 LLWU configured pins PTC1/SCI1_RTS/FTM0_CH0 is"
  44      57552063 
  44      6F6E6669 
  44      67757265 
  44      64207069 
  45 01a8 204C4C57 		.ascii	" LLWU wakeup source \000"
  45      55207761 
  45      6B657570 
  45      20736F75 
  45      72636520 
  46 01bd 000000   		.align	2
  47              	.LC14:
  48 01c0 0A204C4C 		.ascii	"\012 LLWU configured pins PTC3/SCI1_RX/FTM0_CH2 is "
  48      57552063 
  48      6F6E6669 
  48      67757265 
  48      64207069 
  49 01f0 4C4C5755 		.ascii	"LLWU wakeup source \000"
  49      2077616B 
  49      65757020 
  49      736F7572 
  49      63652000 
  50              		.align	2
  51              	.LC16:
  52 0204 0A204C4C 		.ascii	"\012 LLWU configured pins PTC4/SPI0_PCS0/FTM0_CH3 i"
  52      57552063 
  52      6F6E6669 
  52      67757265 
  52      64207069 
  53 0234 73204C4C 		.ascii	"s LLWU wakeup source \000"
  53      57552077 
  53      616B6575 
  53      7020736F 
  53      75726365 
  54 024a 0000     		.align	2
  55              	.LC18:
  56 024c 0A204C4C 		.ascii	"\012 LLWU configured pins PTC5/SPI0_SCK/I2S0_RXD0 i"
  56      57552063 
  56      6F6E6669 
  56      67757265 
  56      64207069 
  57 027c 73204C4C 		.ascii	"s LLWU wakeup source \000"
  57      57552077 
  57      616B6575 
  57      7020736F 
  57      75726365 
  58 0292 0000     		.align	2
  59              	.LC20:
  60 0294 0A204C4C 		.ascii	"\012 LLWU configured pins PTC6/PDB0_EXTRG to be an "
  60      57552063 
  60      6F6E6669 
  60      67757265 
  60      64207069 
  61 02c4 4C4C5755 		.ascii	"LLWU wakeup source \000"
  61      2077616B 
  61      65757020 
  61      736F7572 
  61      63652000 
  62              		.align	2
  63              	.LC22:
  64 02d8 0A204C4C 		.ascii	"\012 LLWU configured pins PTC11/I2S0_RXD1 to be an "
  64      57552063 
  64      6F6E6669 
  64      67757265 
  64      64207069 
  65 0308 4C4C5755 		.ascii	"LLWU wakeup source \000"
  65      2077616B 
  65      65757020 
  65      736F7572 
  65      63652000 
  66              		.align	2
  67              	.LC24:
  68 031c 0A204C4C 		.ascii	"\012 LLWU configured pins PTD0/SPI0_PCS0/SCI2_RTS t"
  68      57552063 
  68      6F6E6669 
  68      67757265 
  68      64207069 
  69 034c 6F206265 		.ascii	"o be an LLWU wakeup source \000"
  69      20616E20 
  69      4C4C5755 
  69      2077616B 
  69      65757020 
  70              		.align	2
  71              	.LC26:
  72 0368 0A204C4C 		.ascii	"\012 LLWU configured pins PTD2/SCI2_RX to be an LLW"
  72      57552063 
  72      6F6E6669 
  72      67757265 
  72      64207069 
  73 0398 55207761 		.ascii	"U wakeup source \000"
  73      6B657570 
  73      20736F75 
  73      72636520 
  73      00
  74 03a9 000000   		.align	2
  75              	.LC28:
  76 03ac 0A204C4C 		.ascii	"\012 LLWU configured pins PTD4/SCI0_RTS/FTM0_CH4/EW"
  76      57552063 
  76      6F6E6669 
  76      67757265 
  76      64207069 
  77 03dc 4D5F494E 		.ascii	"M_IN is LLWU wakeup source \000"
  77      20697320 
  77      4C4C5755 
  77      2077616B 
  77      65757020 
  78              		.align	2
  79              	.LC30:
  80 03f8 0A204C4C 		.ascii	"\012 LLWU configured pins PTD6/SCI0_RX/FTM0_CH6/FTM"
  80      57552063 
  80      6F6E6669 
  80      67757265 
  80      64207069 
  81 0428 305F464C 		.ascii	"0_FLT0 is LLWU wakeup source \000"
  81      54302069 
  81      73204C4C 
  81      57552077 
  81      616B6575 
  82 0446 0000     		.align	2
  83              	.LC32:
  84 0448 0A204C4C 		.ascii	"\012 LLWU configured modules as LLWU wakeup sources"
  84      57552063 
  84      6F6E6669 
  84      67757265 
  84      64206D6F 
  85 0478 203D2030 		.ascii	" = 0x%02X,\000"
  85      78253032 
  85      582C00
  86              		.section	.text.llwu_configure,"ax",%progbits
  87              		.align	2
  88              		.global	llwu_configure
  89              		.code	16
  90              		.thumb_func
  92              	llwu_configure:
  93              	.LFB0:
  94              		.file 1 "C:/Users/b01252/Documents/Freescale/L4K/software/kinetis_kl46_sc/src/drivers/llwu/llwu.c"
   1:C:/Users/b01252/Documents/Freescale/L4K/software/kinetis_kl46_sc/src/drivers/llwu\llwu.c **** /*!
   2:C:/Users/b01252/Documents/Freescale/L4K/software/kinetis_kl46_sc/src/drivers/llwu\llwu.c ****  * \file    llwu.c
   3:C:/Users/b01252/Documents/Freescale/L4K/software/kinetis_kl46_sc/src/drivers/llwu\llwu.c ****  * \brief   common LLWU routines
   4:C:/Users/b01252/Documents/Freescale/L4K/software/kinetis_kl46_sc/src/drivers/llwu\llwu.c ****  *
   5:C:/Users/b01252/Documents/Freescale/L4K/software/kinetis_kl46_sc/src/drivers/llwu\llwu.c ****  * This file defines the functions/interrupt handlers/macros used for LLWU to be used as wakeup sou
   6:C:/Users/b01252/Documents/Freescale/L4K/software/kinetis_kl46_sc/src/drivers/llwu\llwu.c ****  * And some common initializations.
   7:C:/Users/b01252/Documents/Freescale/L4K/software/kinetis_kl46_sc/src/drivers/llwu\llwu.c ****  *
   8:C:/Users/b01252/Documents/Freescale/L4K/software/kinetis_kl46_sc/src/drivers/llwu\llwu.c ****  * \version $Revision: 1.0 $
   9:C:/Users/b01252/Documents/Freescale/L4K/software/kinetis_kl46_sc/src/drivers/llwu\llwu.c ****  * \author  Philip Drake(rxaa60)
  10:C:/Users/b01252/Documents/Freescale/L4K/software/kinetis_kl46_sc/src/drivers/llwu\llwu.c ****  ***/
  11:C:/Users/b01252/Documents/Freescale/L4K/software/kinetis_kl46_sc/src/drivers/llwu\llwu.c **** 
  12:C:/Users/b01252/Documents/Freescale/L4K/software/kinetis_kl46_sc/src/drivers/llwu\llwu.c **** #include "common.h"
  13:C:/Users/b01252/Documents/Freescale/L4K/software/kinetis_kl46_sc/src/drivers/llwu\llwu.c **** #include "llwu.h"
  14:C:/Users/b01252/Documents/Freescale/L4K/software/kinetis_kl46_sc/src/drivers/llwu\llwu.c **** #include "mcg.h"
  15:C:/Users/b01252/Documents/Freescale/L4K/software/kinetis_kl46_sc/src/drivers/llwu\llwu.c **** #include "vectors.h"
  16:C:/Users/b01252/Documents/Freescale/L4K/software/kinetis_kl46_sc/src/drivers/llwu\llwu.c **** 
  17:C:/Users/b01252/Documents/Freescale/L4K/software/kinetis_kl46_sc/src/drivers/llwu\llwu.c **** extern int re_init_clk;
  18:C:/Users/b01252/Documents/Freescale/L4K/software/kinetis_kl46_sc/src/drivers/llwu\llwu.c **** extern int clock_freq_hz;
  19:C:/Users/b01252/Documents/Freescale/L4K/software/kinetis_kl46_sc/src/drivers/llwu\llwu.c **** 
  20:C:/Users/b01252/Documents/Freescale/L4K/software/kinetis_kl46_sc/src/drivers/llwu\llwu.c **** 
  21:C:/Users/b01252/Documents/Freescale/L4K/software/kinetis_kl46_sc/src/drivers/llwu\llwu.c **** /* function: llwu_configure
  22:C:/Users/b01252/Documents/Freescale/L4K/software/kinetis_kl46_sc/src/drivers/llwu\llwu.c **** 
  23:C:/Users/b01252/Documents/Freescale/L4K/software/kinetis_kl46_sc/src/drivers/llwu\llwu.c ****    description: Set up the LLWU for wakeup the MCU from LLS and VLLSx modes 
  24:C:/Users/b01252/Documents/Freescale/L4K/software/kinetis_kl46_sc/src/drivers/llwu\llwu.c ****    from the selected pin or module.
  25:C:/Users/b01252/Documents/Freescale/L4K/software/kinetis_kl46_sc/src/drivers/llwu\llwu.c ****    
  26:C:/Users/b01252/Documents/Freescale/L4K/software/kinetis_kl46_sc/src/drivers/llwu\llwu.c ****    inputs:
  27:C:/Users/b01252/Documents/Freescale/L4K/software/kinetis_kl46_sc/src/drivers/llwu\llwu.c ****    pin_en - unsigned integer, bit position indicates the pin is enabled.  
  28:C:/Users/b01252/Documents/Freescale/L4K/software/kinetis_kl46_sc/src/drivers/llwu\llwu.c ****             More than one bit can be set to enable more than one pin at a time.  
  29:C:/Users/b01252/Documents/Freescale/L4K/software/kinetis_kl46_sc/src/drivers/llwu\llwu.c ****    
  30:C:/Users/b01252/Documents/Freescale/L4K/software/kinetis_kl46_sc/src/drivers/llwu\llwu.c ****    rise_fall - 0x00 = External input disabled as wakeup
  31:C:/Users/b01252/Documents/Freescale/L4K/software/kinetis_kl46_sc/src/drivers/llwu\llwu.c ****                0x01 - External input enabled as rising edge detection
  32:C:/Users/b01252/Documents/Freescale/L4K/software/kinetis_kl46_sc/src/drivers/llwu\llwu.c ****                0x02 - External input enabled as falling edge detection
  33:C:/Users/b01252/Documents/Freescale/L4K/software/kinetis_kl46_sc/src/drivers/llwu\llwu.c ****                0x03 - External input enablge as any edge detection
  34:C:/Users/b01252/Documents/Freescale/L4K/software/kinetis_kl46_sc/src/drivers/llwu\llwu.c ****    module_en - unsigned char, bit position indicates the module is enabled.  
  35:C:/Users/b01252/Documents/Freescale/L4K/software/kinetis_kl46_sc/src/drivers/llwu\llwu.c ****                More than one bit can be set to enabled more than one module                   
  36:C:/Users/b01252/Documents/Freescale/L4K/software/kinetis_kl46_sc/src/drivers/llwu\llwu.c ****    
  37:C:/Users/b01252/Documents/Freescale/L4K/software/kinetis_kl46_sc/src/drivers/llwu\llwu.c ****    for example:  if bit 0 and 1 need to be enabled as rising edge detect call this  routine with
  38:C:/Users/b01252/Documents/Freescale/L4K/software/kinetis_kl46_sc/src/drivers/llwu\llwu.c ****    pin_en = 0x0003 and rise_fall = 0x02
  39:C:/Users/b01252/Documents/Freescale/L4K/software/kinetis_kl46_sc/src/drivers/llwu\llwu.c ****    
  40:C:/Users/b01252/Documents/Freescale/L4K/software/kinetis_kl46_sc/src/drivers/llwu\llwu.c ****    Note: to set up one set of pins for rising and another for falling, 2 calls to this 
  41:C:/Users/b01252/Documents/Freescale/L4K/software/kinetis_kl46_sc/src/drivers/llwu\llwu.c ****          function are required, 1st for rising then the second for falling.
  42:C:/Users/b01252/Documents/Freescale/L4K/software/kinetis_kl46_sc/src/drivers/llwu\llwu.c ****    
  43:C:/Users/b01252/Documents/Freescale/L4K/software/kinetis_kl46_sc/src/drivers/llwu\llwu.c **** */
  44:C:/Users/b01252/Documents/Freescale/L4K/software/kinetis_kl46_sc/src/drivers/llwu\llwu.c **** 
  45:C:/Users/b01252/Documents/Freescale/L4K/software/kinetis_kl46_sc/src/drivers/llwu\llwu.c **** void llwu_configure(unsigned int pin_en, unsigned char rise_fall, unsigned char module_en ) {
  95              		.loc 1 45 0
  96              		.cfi_startproc
  97 0000 80B5     		push	{r7, lr}
  98              	.LCFI0:
  99              		.cfi_def_cfa_offset 8
 100              		.cfi_offset 7, -8
 101              		.cfi_offset 14, -4
 102 0002 84B0     		sub	sp, sp, #16
 103              	.LCFI1:
 104              		.cfi_def_cfa_offset 24
 105 0004 00AF     		add	r7, sp, #0
 106              	.LCFI2:
 107              		.cfi_def_cfa_register 7
 108 0006 7860     		str	r0, [r7, #4]
 109 0008 FB1C     		add	r3, r7, #3
 110 000a 1970     		strb	r1, [r3]
 111 000c BB1C     		add	r3, r7, #2
 112 000e 1A70     		strb	r2, [r3]
  46:C:/Users/b01252/Documents/Freescale/L4K/software/kinetis_kl46_sc/src/drivers/llwu\llwu.c ****     uint8 temp;
  47:C:/Users/b01252/Documents/Freescale/L4K/software/kinetis_kl46_sc/src/drivers/llwu\llwu.c ****     
  48:C:/Users/b01252/Documents/Freescale/L4K/software/kinetis_kl46_sc/src/drivers/llwu\llwu.c ****     temp = LLWU_PE1;
 113              		.loc 1 48 0
 114 0010 D94A     		ldr	r2, .L20
 115 0012 3B1C     		mov	r3, r7
 116 0014 0F33     		add	r3, r3, #15
 117 0016 1278     		ldrb	r2, [r2]
 118 0018 1A70     		strb	r2, [r3]
  49:C:/Users/b01252/Documents/Freescale/L4K/software/kinetis_kl46_sc/src/drivers/llwu\llwu.c ****     if( pin_en & 0x0001)
 119              		.loc 1 49 0
 120 001a 7A68     		ldr	r2, [r7, #4]
 121 001c 0123     		mov	r3, #1
 122 001e 1340     		and	r3, r2
 123 0020 03D0     		beq	.L2
  50:C:/Users/b01252/Documents/Freescale/L4K/software/kinetis_kl46_sc/src/drivers/llwu\llwu.c ****     {      
  51:C:/Users/b01252/Documents/Freescale/L4K/software/kinetis_kl46_sc/src/drivers/llwu\llwu.c ****         printf("\n Invalid LLWU configured pin PTE1/SCI1_RX/I2C1_SCL /SPI1_SIN");      
 124              		.loc 1 51 0
 125 0022 D64B     		ldr	r3, .L20+4
 126 0024 181C     		mov	r0, r3
 127 0026 FFF7FEFF 		bl	printf
 128              	.L2:
  52:C:/Users/b01252/Documents/Freescale/L4K/software/kinetis_kl46_sc/src/drivers/llwu\llwu.c ****     }
  53:C:/Users/b01252/Documents/Freescale/L4K/software/kinetis_kl46_sc/src/drivers/llwu\llwu.c ****     if( pin_en & 0x0002)
 129              		.loc 1 53 0
 130 002a 7A68     		ldr	r2, [r7, #4]
 131 002c 0223     		mov	r3, #2
 132 002e 1340     		and	r3, r2
 133 0030 03D0     		beq	.L3
  54:C:/Users/b01252/Documents/Freescale/L4K/software/kinetis_kl46_sc/src/drivers/llwu\llwu.c ****     {      
  55:C:/Users/b01252/Documents/Freescale/L4K/software/kinetis_kl46_sc/src/drivers/llwu\llwu.c ****         printf("\n Invalid LLWU configured pin PTE2/SPI1_SCK/SDHC0_DCLK");       
 134              		.loc 1 55 0
 135 0032 D34B     		ldr	r3, .L20+8
 136 0034 181C     		mov	r0, r3
 137 0036 FFF7FEFF 		bl	printf
 138              	.L3:
  56:C:/Users/b01252/Documents/Freescale/L4K/software/kinetis_kl46_sc/src/drivers/llwu\llwu.c ****     }
  57:C:/Users/b01252/Documents/Freescale/L4K/software/kinetis_kl46_sc/src/drivers/llwu\llwu.c ****     if( pin_en & 0x0004)
 139              		.loc 1 57 0
 140 003a 7A68     		ldr	r2, [r7, #4]
 141 003c 0423     		mov	r3, #4
 142 003e 1340     		and	r3, r2
 143 0040 03D0     		beq	.L4
  58:C:/Users/b01252/Documents/Freescale/L4K/software/kinetis_kl46_sc/src/drivers/llwu\llwu.c ****     {
  59:C:/Users/b01252/Documents/Freescale/L4K/software/kinetis_kl46_sc/src/drivers/llwu\llwu.c ****         printf("\n Invalid LLWU configured pin PTE4/SPI1_PCS0/SDHC0_D3");
 144              		.loc 1 59 0
 145 0042 D04B     		ldr	r3, .L20+12
 146 0044 181C     		mov	r0, r3
 147 0046 FFF7FEFF 		bl	printf
 148              	.L4:
  60:C:/Users/b01252/Documents/Freescale/L4K/software/kinetis_kl46_sc/src/drivers/llwu\llwu.c ****     }
  61:C:/Users/b01252/Documents/Freescale/L4K/software/kinetis_kl46_sc/src/drivers/llwu\llwu.c ****     if( pin_en & 0x0008)
 149              		.loc 1 61 0
 150 004a 7A68     		ldr	r2, [r7, #4]
 151 004c 0823     		mov	r3, #8
 152 004e 1340     		and	r3, r2
 153 0050 03D0     		beq	.L5
  62:C:/Users/b01252/Documents/Freescale/L4K/software/kinetis_kl46_sc/src/drivers/llwu\llwu.c ****     {
  63:C:/Users/b01252/Documents/Freescale/L4K/software/kinetis_kl46_sc/src/drivers/llwu\llwu.c ****         printf("\n Invalid LLWU configured pin PTA4/FTM0_CH1/NMI/EZP_CS");
 154              		.loc 1 63 0
 155 0052 CD4B     		ldr	r3, .L20+16
 156 0054 181C     		mov	r0, r3
 157 0056 FFF7FEFF 		bl	printf
 158              	.L5:
  64:C:/Users/b01252/Documents/Freescale/L4K/software/kinetis_kl46_sc/src/drivers/llwu\llwu.c ****     }
  65:C:/Users/b01252/Documents/Freescale/L4K/software/kinetis_kl46_sc/src/drivers/llwu\llwu.c ****     LLWU_PE1 = temp;
 159              		.loc 1 65 0
 160 005a C74B     		ldr	r3, .L20
 161 005c 3A1C     		mov	r2, r7
 162 005e 0F32     		add	r2, r2, #15
 163 0060 1278     		ldrb	r2, [r2]
 164 0062 1A70     		strb	r2, [r3]
  66:C:/Users/b01252/Documents/Freescale/L4K/software/kinetis_kl46_sc/src/drivers/llwu\llwu.c **** 
  67:C:/Users/b01252/Documents/Freescale/L4K/software/kinetis_kl46_sc/src/drivers/llwu\llwu.c ****     temp = LLWU_PE2;
 165              		.loc 1 67 0
 166 0064 C44A     		ldr	r2, .L20
 167 0066 3B1C     		mov	r3, r7
 168 0068 0F33     		add	r3, r3, #15
 169 006a 5278     		ldrb	r2, [r2, #1]
 170 006c 1A70     		strb	r2, [r3]
  68:C:/Users/b01252/Documents/Freescale/L4K/software/kinetis_kl46_sc/src/drivers/llwu\llwu.c ****     if( pin_en & 0x0010)
 171              		.loc 1 68 0
 172 006e 7A68     		ldr	r2, [r7, #4]
 173 0070 1023     		mov	r3, #16
 174 0072 1340     		and	r3, r2
 175 0074 03D0     		beq	.L6
  69:C:/Users/b01252/Documents/Freescale/L4K/software/kinetis_kl46_sc/src/drivers/llwu\llwu.c ****     {
  70:C:/Users/b01252/Documents/Freescale/L4K/software/kinetis_kl46_sc/src/drivers/llwu\llwu.c ****         printf("\n Invalid LLWU configured pin PTA13/FTM1_CH1 /FTM1_QD_PHB");
 176              		.loc 1 70 0
 177 0076 C54B     		ldr	r3, .L20+20
 178 0078 181C     		mov	r0, r3
 179 007a FFF7FEFF 		bl	printf
 180              	.L6:
  71:C:/Users/b01252/Documents/Freescale/L4K/software/kinetis_kl46_sc/src/drivers/llwu\llwu.c ****     }
  72:C:/Users/b01252/Documents/Freescale/L4K/software/kinetis_kl46_sc/src/drivers/llwu\llwu.c ****     if( pin_en & 0x0020)
 181              		.loc 1 72 0
 182 007e 7A68     		ldr	r2, [r7, #4]
 183 0080 2023     		mov	r3, #32
 184 0082 1340     		and	r3, r2
 185 0084 19D0     		beq	.L7
  73:C:/Users/b01252/Documents/Freescale/L4K/software/kinetis_kl46_sc/src/drivers/llwu\llwu.c ****     {
  74:C:/Users/b01252/Documents/Freescale/L4K/software/kinetis_kl46_sc/src/drivers/llwu\llwu.c ****         temp |= LLWU_PE2_WUPE5(rise_fall);
 186              		.loc 1 74 0
 187 0086 FB1C     		add	r3, r7, #3
 188 0088 1B78     		ldrb	r3, [r3]
 189 008a 9B00     		lsl	r3, r3, #2
 190 008c DAB2     		uxtb	r2, r3
 191 008e 0C23     		mov	r3, #12
 192 0090 1340     		and	r3, r2
 193 0092 D9B2     		uxtb	r1, r3
 194 0094 3B1C     		mov	r3, r7
 195 0096 0F33     		add	r3, r3, #15
 196 0098 3A1C     		mov	r2, r7
 197 009a 0F32     		add	r2, r2, #15
 198 009c 1278     		ldrb	r2, [r2]
 199 009e 0A43     		orr	r2, r1
 200 00a0 1A70     		strb	r2, [r3]
  75:C:/Users/b01252/Documents/Freescale/L4K/software/kinetis_kl46_sc/src/drivers/llwu\llwu.c ****         printf("\n LLWU configured pins PTB0/I2C0_SCL/FTM1_CH0/FTM1_QD_PHA is LLWU wakeup source ")
 201              		.loc 1 75 0
 202 00a2 BB4B     		ldr	r3, .L20+24
 203 00a4 181C     		mov	r0, r3
 204 00a6 FFF7FEFF 		bl	printf
  76:C:/Users/b01252/Documents/Freescale/L4K/software/kinetis_kl46_sc/src/drivers/llwu\llwu.c ****         LLWU_F1 |= LLWU_F1_WUF5_MASK;   // write one to clear the flag
 205              		.loc 1 76 0
 206 00aa B34B     		ldr	r3, .L20
 207 00ac B24A     		ldr	r2, .L20
 208 00ae 5279     		ldrb	r2, [r2, #5]
 209 00b0 D2B2     		uxtb	r2, r2
 210 00b2 2021     		mov	r1, #32
 211 00b4 0A43     		orr	r2, r1
 212 00b6 D2B2     		uxtb	r2, r2
 213 00b8 5A71     		strb	r2, [r3, #5]
 214              	.L7:
  77:C:/Users/b01252/Documents/Freescale/L4K/software/kinetis_kl46_sc/src/drivers/llwu\llwu.c ****     }
  78:C:/Users/b01252/Documents/Freescale/L4K/software/kinetis_kl46_sc/src/drivers/llwu\llwu.c ****     if( pin_en & 0x0040)
 215              		.loc 1 78 0
 216 00ba 7A68     		ldr	r2, [r7, #4]
 217 00bc 4023     		mov	r3, #64
 218 00be 1340     		and	r3, r2
 219 00c0 19D0     		beq	.L8
  79:C:/Users/b01252/Documents/Freescale/L4K/software/kinetis_kl46_sc/src/drivers/llwu\llwu.c ****     {
  80:C:/Users/b01252/Documents/Freescale/L4K/software/kinetis_kl46_sc/src/drivers/llwu\llwu.c ****         temp |= LLWU_PE2_WUPE6(rise_fall);
 220              		.loc 1 80 0
 221 00c2 FB1C     		add	r3, r7, #3
 222 00c4 1B78     		ldrb	r3, [r3]
 223 00c6 1B01     		lsl	r3, r3, #4
 224 00c8 DAB2     		uxtb	r2, r3
 225 00ca 3023     		mov	r3, #48
 226 00cc 1340     		and	r3, r2
 227 00ce D9B2     		uxtb	r1, r3
 228 00d0 3B1C     		mov	r3, r7
 229 00d2 0F33     		add	r3, r3, #15
 230 00d4 3A1C     		mov	r2, r7
 231 00d6 0F32     		add	r2, r2, #15
 232 00d8 1278     		ldrb	r2, [r2]
 233 00da 0A43     		orr	r2, r1
 234 00dc 1A70     		strb	r2, [r3]
  81:C:/Users/b01252/Documents/Freescale/L4K/software/kinetis_kl46_sc/src/drivers/llwu\llwu.c ****         printf("\n LLWU configured pins PTC1/SCI1_RTS/FTM0_CH0 is LLWU wakeup source ");
 235              		.loc 1 81 0
 236 00de AD4B     		ldr	r3, .L20+28
 237 00e0 181C     		mov	r0, r3
 238 00e2 FFF7FEFF 		bl	printf
  82:C:/Users/b01252/Documents/Freescale/L4K/software/kinetis_kl46_sc/src/drivers/llwu\llwu.c ****         LLWU_F1 |= LLWU_F1_WUF6_MASK;   // write one to clear the flag
 239              		.loc 1 82 0
 240 00e6 A44B     		ldr	r3, .L20
 241 00e8 A34A     		ldr	r2, .L20
 242 00ea 5279     		ldrb	r2, [r2, #5]
 243 00ec D2B2     		uxtb	r2, r2
 244 00ee 4021     		mov	r1, #64
 245 00f0 0A43     		orr	r2, r1
 246 00f2 D2B2     		uxtb	r2, r2
 247 00f4 5A71     		strb	r2, [r3, #5]
 248              	.L8:
  83:C:/Users/b01252/Documents/Freescale/L4K/software/kinetis_kl46_sc/src/drivers/llwu\llwu.c ****     }
  84:C:/Users/b01252/Documents/Freescale/L4K/software/kinetis_kl46_sc/src/drivers/llwu\llwu.c ****     if( pin_en & 0x0080)
 249              		.loc 1 84 0
 250 00f6 7A68     		ldr	r2, [r7, #4]
 251 00f8 8023     		mov	r3, #128
 252 00fa 1340     		and	r3, r2
 253 00fc 17D0     		beq	.L9
  85:C:/Users/b01252/Documents/Freescale/L4K/software/kinetis_kl46_sc/src/drivers/llwu\llwu.c ****     {
  86:C:/Users/b01252/Documents/Freescale/L4K/software/kinetis_kl46_sc/src/drivers/llwu\llwu.c ****         temp |= LLWU_PE2_WUPE7(rise_fall);
 254              		.loc 1 86 0
 255 00fe FB1C     		add	r3, r7, #3
 256 0100 1B78     		ldrb	r3, [r3]
 257 0102 9B01     		lsl	r3, r3, #6
 258 0104 D9B2     		uxtb	r1, r3
 259 0106 3B1C     		mov	r3, r7
 260 0108 0F33     		add	r3, r3, #15
 261 010a 3A1C     		mov	r2, r7
 262 010c 0F32     		add	r2, r2, #15
 263 010e 1278     		ldrb	r2, [r2]
 264 0110 0A43     		orr	r2, r1
 265 0112 1A70     		strb	r2, [r3]
  87:C:/Users/b01252/Documents/Freescale/L4K/software/kinetis_kl46_sc/src/drivers/llwu\llwu.c ****         printf("\n LLWU configured pins PTC3/SCI1_RX/FTM0_CH2 is LLWU wakeup source ");
 266              		.loc 1 87 0
 267 0114 A04B     		ldr	r3, .L20+32
 268 0116 181C     		mov	r0, r3
 269 0118 FFF7FEFF 		bl	printf
  88:C:/Users/b01252/Documents/Freescale/L4K/software/kinetis_kl46_sc/src/drivers/llwu\llwu.c ****         LLWU_F1 |= LLWU_F1_WUF7_MASK;   // write one to clear the flag
 270              		.loc 1 88 0
 271 011c 964B     		ldr	r3, .L20
 272 011e 964A     		ldr	r2, .L20
 273 0120 5279     		ldrb	r2, [r2, #5]
 274 0122 D2B2     		uxtb	r2, r2
 275 0124 8021     		mov	r1, #128
 276 0126 4942     		neg	r1, r1
 277 0128 0A43     		orr	r2, r1
 278 012a D2B2     		uxtb	r2, r2
 279 012c 5A71     		strb	r2, [r3, #5]
 280              	.L9:
  89:C:/Users/b01252/Documents/Freescale/L4K/software/kinetis_kl46_sc/src/drivers/llwu\llwu.c ****     }
  90:C:/Users/b01252/Documents/Freescale/L4K/software/kinetis_kl46_sc/src/drivers/llwu\llwu.c ****     LLWU_PE2 = temp;
 281              		.loc 1 90 0
 282 012e 924B     		ldr	r3, .L20
 283 0130 3A1C     		mov	r2, r7
 284 0132 0F32     		add	r2, r2, #15
 285 0134 1278     		ldrb	r2, [r2]
 286 0136 5A70     		strb	r2, [r3, #1]
  91:C:/Users/b01252/Documents/Freescale/L4K/software/kinetis_kl46_sc/src/drivers/llwu\llwu.c **** 
  92:C:/Users/b01252/Documents/Freescale/L4K/software/kinetis_kl46_sc/src/drivers/llwu\llwu.c ****     temp = LLWU_PE3;
 287              		.loc 1 92 0
 288 0138 8F4A     		ldr	r2, .L20
 289 013a 3B1C     		mov	r3, r7
 290 013c 0F33     		add	r3, r3, #15
 291 013e 9278     		ldrb	r2, [r2, #2]
 292 0140 1A70     		strb	r2, [r3]
  93:C:/Users/b01252/Documents/Freescale/L4K/software/kinetis_kl46_sc/src/drivers/llwu\llwu.c ****     if( pin_en & 0x0100)
 293              		.loc 1 93 0
 294 0142 7A68     		ldr	r2, [r7, #4]
 295 0144 8023     		mov	r3, #128
 296 0146 5B00     		lsl	r3, r3, #1
 297 0148 1340     		and	r3, r2
 298 014a 17D0     		beq	.L10
  94:C:/Users/b01252/Documents/Freescale/L4K/software/kinetis_kl46_sc/src/drivers/llwu\llwu.c ****     {
  95:C:/Users/b01252/Documents/Freescale/L4K/software/kinetis_kl46_sc/src/drivers/llwu\llwu.c ****         temp |= LLWU_PE3_WUPE8(rise_fall);
 299              		.loc 1 95 0
 300 014c FB1C     		add	r3, r7, #3
 301 014e 1A78     		ldrb	r2, [r3]
 302 0150 0323     		mov	r3, #3
 303 0152 1340     		and	r3, r2
 304 0154 D9B2     		uxtb	r1, r3
 305 0156 3B1C     		mov	r3, r7
 306 0158 0F33     		add	r3, r3, #15
 307 015a 3A1C     		mov	r2, r7
 308 015c 0F32     		add	r2, r2, #15
 309 015e 1278     		ldrb	r2, [r2]
 310 0160 0A43     		orr	r2, r1
 311 0162 1A70     		strb	r2, [r3]
  96:C:/Users/b01252/Documents/Freescale/L4K/software/kinetis_kl46_sc/src/drivers/llwu\llwu.c ****         printf("\n LLWU configured pins PTC4/SPI0_PCS0/FTM0_CH3 is LLWU wakeup source ");
 312              		.loc 1 96 0
 313 0164 8D4B     		ldr	r3, .L20+36
 314 0166 181C     		mov	r0, r3
 315 0168 FFF7FEFF 		bl	printf
  97:C:/Users/b01252/Documents/Freescale/L4K/software/kinetis_kl46_sc/src/drivers/llwu\llwu.c ****         LLWU_F2 |= LLWU_F2_WUF8_MASK;   // write one to clear the flag
 316              		.loc 1 97 0
 317 016c 824B     		ldr	r3, .L20
 318 016e 824A     		ldr	r2, .L20
 319 0170 9279     		ldrb	r2, [r2, #6]
 320 0172 D2B2     		uxtb	r2, r2
 321 0174 0121     		mov	r1, #1
 322 0176 0A43     		orr	r2, r1
 323 0178 D2B2     		uxtb	r2, r2
 324 017a 9A71     		strb	r2, [r3, #6]
 325              	.L10:
  98:C:/Users/b01252/Documents/Freescale/L4K/software/kinetis_kl46_sc/src/drivers/llwu\llwu.c ****     }
  99:C:/Users/b01252/Documents/Freescale/L4K/software/kinetis_kl46_sc/src/drivers/llwu\llwu.c ****     if( pin_en & 0x0200)
 326              		.loc 1 99 0
 327 017c 7A68     		ldr	r2, [r7, #4]
 328 017e 8023     		mov	r3, #128
 329 0180 9B00     		lsl	r3, r3, #2
 330 0182 1340     		and	r3, r2
 331 0184 19D0     		beq	.L11
 100:C:/Users/b01252/Documents/Freescale/L4K/software/kinetis_kl46_sc/src/drivers/llwu\llwu.c ****     {
 101:C:/Users/b01252/Documents/Freescale/L4K/software/kinetis_kl46_sc/src/drivers/llwu\llwu.c ****         temp |= LLWU_PE3_WUPE9(rise_fall);
 332              		.loc 1 101 0
 333 0186 FB1C     		add	r3, r7, #3
 334 0188 1B78     		ldrb	r3, [r3]
 335 018a 9B00     		lsl	r3, r3, #2
 336 018c DAB2     		uxtb	r2, r3
 337 018e 0C23     		mov	r3, #12
 338 0190 1340     		and	r3, r2
 339 0192 D9B2     		uxtb	r1, r3
 340 0194 3B1C     		mov	r3, r7
 341 0196 0F33     		add	r3, r3, #15
 342 0198 3A1C     		mov	r2, r7
 343 019a 0F32     		add	r2, r2, #15
 344 019c 1278     		ldrb	r2, [r2]
 345 019e 0A43     		orr	r2, r1
 346 01a0 1A70     		strb	r2, [r3]
 102:C:/Users/b01252/Documents/Freescale/L4K/software/kinetis_kl46_sc/src/drivers/llwu\llwu.c ****         printf("\n LLWU configured pins PTC5/SPI0_SCK/I2S0_RXD0 is LLWU wakeup source ");
 347              		.loc 1 102 0
 348 01a2 7F4B     		ldr	r3, .L20+40
 349 01a4 181C     		mov	r0, r3
 350 01a6 FFF7FEFF 		bl	printf
 103:C:/Users/b01252/Documents/Freescale/L4K/software/kinetis_kl46_sc/src/drivers/llwu\llwu.c ****         LLWU_F2 |= LLWU_F2_WUF9_MASK;   // write one to clear the flag
 351              		.loc 1 103 0
 352 01aa 734B     		ldr	r3, .L20
 353 01ac 724A     		ldr	r2, .L20
 354 01ae 9279     		ldrb	r2, [r2, #6]
 355 01b0 D2B2     		uxtb	r2, r2
 356 01b2 0221     		mov	r1, #2
 357 01b4 0A43     		orr	r2, r1
 358 01b6 D2B2     		uxtb	r2, r2
 359 01b8 9A71     		strb	r2, [r3, #6]
 360              	.L11:
 104:C:/Users/b01252/Documents/Freescale/L4K/software/kinetis_kl46_sc/src/drivers/llwu\llwu.c ****     }
 105:C:/Users/b01252/Documents/Freescale/L4K/software/kinetis_kl46_sc/src/drivers/llwu\llwu.c ****     if( pin_en & 0x0400)
 361              		.loc 1 105 0
 362 01ba 7A68     		ldr	r2, [r7, #4]
 363 01bc 8023     		mov	r3, #128
 364 01be DB00     		lsl	r3, r3, #3
 365 01c0 1340     		and	r3, r2
 366 01c2 19D0     		beq	.L12
 106:C:/Users/b01252/Documents/Freescale/L4K/software/kinetis_kl46_sc/src/drivers/llwu\llwu.c ****     {
 107:C:/Users/b01252/Documents/Freescale/L4K/software/kinetis_kl46_sc/src/drivers/llwu\llwu.c ****         temp |= LLWU_PE3_WUPE10(rise_fall);
 367              		.loc 1 107 0
 368 01c4 FB1C     		add	r3, r7, #3
 369 01c6 1B78     		ldrb	r3, [r3]
 370 01c8 1B01     		lsl	r3, r3, #4
 371 01ca DAB2     		uxtb	r2, r3
 372 01cc 3023     		mov	r3, #48
 373 01ce 1340     		and	r3, r2
 374 01d0 D9B2     		uxtb	r1, r3
 375 01d2 3B1C     		mov	r3, r7
 376 01d4 0F33     		add	r3, r3, #15
 377 01d6 3A1C     		mov	r2, r7
 378 01d8 0F32     		add	r2, r2, #15
 379 01da 1278     		ldrb	r2, [r2]
 380 01dc 0A43     		orr	r2, r1
 381 01de 1A70     		strb	r2, [r3]
 108:C:/Users/b01252/Documents/Freescale/L4K/software/kinetis_kl46_sc/src/drivers/llwu\llwu.c ****         printf("\n LLWU configured pins PTC6/PDB0_EXTRG to be an LLWU wakeup source ");
 382              		.loc 1 108 0
 383 01e0 704B     		ldr	r3, .L20+44
 384 01e2 181C     		mov	r0, r3
 385 01e4 FFF7FEFF 		bl	printf
 109:C:/Users/b01252/Documents/Freescale/L4K/software/kinetis_kl46_sc/src/drivers/llwu\llwu.c ****         LLWU_F2 |= LLWU_F2_WUF10_MASK;   // write one to clear the flag
 386              		.loc 1 109 0
 387 01e8 634B     		ldr	r3, .L20
 388 01ea 634A     		ldr	r2, .L20
 389 01ec 9279     		ldrb	r2, [r2, #6]
 390 01ee D2B2     		uxtb	r2, r2
 391 01f0 0421     		mov	r1, #4
 392 01f2 0A43     		orr	r2, r1
 393 01f4 D2B2     		uxtb	r2, r2
 394 01f6 9A71     		strb	r2, [r3, #6]
 395              	.L12:
 110:C:/Users/b01252/Documents/Freescale/L4K/software/kinetis_kl46_sc/src/drivers/llwu\llwu.c ****     }
 111:C:/Users/b01252/Documents/Freescale/L4K/software/kinetis_kl46_sc/src/drivers/llwu\llwu.c ****     if( pin_en & 0x0800)
 396              		.loc 1 111 0
 397 01f8 7A68     		ldr	r2, [r7, #4]
 398 01fa 8023     		mov	r3, #128
 399 01fc 1B01     		lsl	r3, r3, #4
 400 01fe 1340     		and	r3, r2
 401 0200 16D0     		beq	.L13
 112:C:/Users/b01252/Documents/Freescale/L4K/software/kinetis_kl46_sc/src/drivers/llwu\llwu.c ****     {
 113:C:/Users/b01252/Documents/Freescale/L4K/software/kinetis_kl46_sc/src/drivers/llwu\llwu.c ****         temp |= LLWU_PE3_WUPE11(rise_fall);
 402              		.loc 1 113 0
 403 0202 FB1C     		add	r3, r7, #3
 404 0204 1B78     		ldrb	r3, [r3]
 405 0206 9B01     		lsl	r3, r3, #6
 406 0208 D9B2     		uxtb	r1, r3
 407 020a 3B1C     		mov	r3, r7
 408 020c 0F33     		add	r3, r3, #15
 409 020e 3A1C     		mov	r2, r7
 410 0210 0F32     		add	r2, r2, #15
 411 0212 1278     		ldrb	r2, [r2]
 412 0214 0A43     		orr	r2, r1
 413 0216 1A70     		strb	r2, [r3]
 114:C:/Users/b01252/Documents/Freescale/L4K/software/kinetis_kl46_sc/src/drivers/llwu\llwu.c ****         printf("\n LLWU configured pins PTC11/I2S0_RXD1 to be an LLWU wakeup source ");
 414              		.loc 1 114 0
 415 0218 634B     		ldr	r3, .L20+48
 416 021a 181C     		mov	r0, r3
 417 021c FFF7FEFF 		bl	printf
 115:C:/Users/b01252/Documents/Freescale/L4K/software/kinetis_kl46_sc/src/drivers/llwu\llwu.c ****         LLWU_F2 |= LLWU_F2_WUF11_MASK;   // write one to clear the flag
 418              		.loc 1 115 0
 419 0220 554B     		ldr	r3, .L20
 420 0222 554A     		ldr	r2, .L20
 421 0224 9279     		ldrb	r2, [r2, #6]
 422 0226 D2B2     		uxtb	r2, r2
 423 0228 0821     		mov	r1, #8
 424 022a 0A43     		orr	r2, r1
 425 022c D2B2     		uxtb	r2, r2
 426 022e 9A71     		strb	r2, [r3, #6]
 427              	.L13:
 116:C:/Users/b01252/Documents/Freescale/L4K/software/kinetis_kl46_sc/src/drivers/llwu\llwu.c ****     }
 117:C:/Users/b01252/Documents/Freescale/L4K/software/kinetis_kl46_sc/src/drivers/llwu\llwu.c ****     LLWU_PE3 = temp;
 428              		.loc 1 117 0
 429 0230 514B     		ldr	r3, .L20
 430 0232 3A1C     		mov	r2, r7
 431 0234 0F32     		add	r2, r2, #15
 432 0236 1278     		ldrb	r2, [r2]
 433 0238 9A70     		strb	r2, [r3, #2]
 118:C:/Users/b01252/Documents/Freescale/L4K/software/kinetis_kl46_sc/src/drivers/llwu\llwu.c **** 
 119:C:/Users/b01252/Documents/Freescale/L4K/software/kinetis_kl46_sc/src/drivers/llwu\llwu.c ****     temp = LLWU_PE4;
 434              		.loc 1 119 0
 435 023a 4F4A     		ldr	r2, .L20
 436 023c 3B1C     		mov	r3, r7
 437 023e 0F33     		add	r3, r3, #15
 438 0240 D278     		ldrb	r2, [r2, #3]
 439 0242 1A70     		strb	r2, [r3]
 120:C:/Users/b01252/Documents/Freescale/L4K/software/kinetis_kl46_sc/src/drivers/llwu\llwu.c ****     if( pin_en & 0x1000)
 440              		.loc 1 120 0
 441 0244 7A68     		ldr	r2, [r7, #4]
 442 0246 8023     		mov	r3, #128
 443 0248 5B01     		lsl	r3, r3, #5
 444 024a 1340     		and	r3, r2
 445 024c 17D0     		beq	.L14
 121:C:/Users/b01252/Documents/Freescale/L4K/software/kinetis_kl46_sc/src/drivers/llwu\llwu.c ****     {
 122:C:/Users/b01252/Documents/Freescale/L4K/software/kinetis_kl46_sc/src/drivers/llwu\llwu.c ****         temp |= LLWU_PE4_WUPE12(rise_fall);
 446              		.loc 1 122 0
 447 024e FB1C     		add	r3, r7, #3
 448 0250 1A78     		ldrb	r2, [r3]
 449 0252 0323     		mov	r3, #3
 450 0254 1340     		and	r3, r2
 451 0256 D9B2     		uxtb	r1, r3
 452 0258 3B1C     		mov	r3, r7
 453 025a 0F33     		add	r3, r3, #15
 454 025c 3A1C     		mov	r2, r7
 455 025e 0F32     		add	r2, r2, #15
 456 0260 1278     		ldrb	r2, [r2]
 457 0262 0A43     		orr	r2, r1
 458 0264 1A70     		strb	r2, [r3]
 123:C:/Users/b01252/Documents/Freescale/L4K/software/kinetis_kl46_sc/src/drivers/llwu\llwu.c ****         printf("\n LLWU configured pins PTD0/SPI0_PCS0/SCI2_RTS to be an LLWU wakeup source ");
 459              		.loc 1 123 0
 460 0266 514B     		ldr	r3, .L20+52
 461 0268 181C     		mov	r0, r3
 462 026a FFF7FEFF 		bl	printf
 124:C:/Users/b01252/Documents/Freescale/L4K/software/kinetis_kl46_sc/src/drivers/llwu\llwu.c ****         LLWU_F2 |= LLWU_F2_WUF12_MASK;   // write one to clear the flag
 463              		.loc 1 124 0
 464 026e 424B     		ldr	r3, .L20
 465 0270 414A     		ldr	r2, .L20
 466 0272 9279     		ldrb	r2, [r2, #6]
 467 0274 D2B2     		uxtb	r2, r2
 468 0276 1021     		mov	r1, #16
 469 0278 0A43     		orr	r2, r1
 470 027a D2B2     		uxtb	r2, r2
 471 027c 9A71     		strb	r2, [r3, #6]
 472              	.L14:
 125:C:/Users/b01252/Documents/Freescale/L4K/software/kinetis_kl46_sc/src/drivers/llwu\llwu.c ****     }
 126:C:/Users/b01252/Documents/Freescale/L4K/software/kinetis_kl46_sc/src/drivers/llwu\llwu.c ****     if( pin_en & 0x2000)
 473              		.loc 1 126 0
 474 027e 7A68     		ldr	r2, [r7, #4]
 475 0280 8023     		mov	r3, #128
 476 0282 9B01     		lsl	r3, r3, #6
 477 0284 1340     		and	r3, r2
 478 0286 19D0     		beq	.L15
 127:C:/Users/b01252/Documents/Freescale/L4K/software/kinetis_kl46_sc/src/drivers/llwu\llwu.c ****     {
 128:C:/Users/b01252/Documents/Freescale/L4K/software/kinetis_kl46_sc/src/drivers/llwu\llwu.c ****         temp |= LLWU_PE4_WUPE13(rise_fall);
 479              		.loc 1 128 0
 480 0288 FB1C     		add	r3, r7, #3
 481 028a 1B78     		ldrb	r3, [r3]
 482 028c 9B00     		lsl	r3, r3, #2
 483 028e DAB2     		uxtb	r2, r3
 484 0290 0C23     		mov	r3, #12
 485 0292 1340     		and	r3, r2
 486 0294 D9B2     		uxtb	r1, r3
 487 0296 3B1C     		mov	r3, r7
 488 0298 0F33     		add	r3, r3, #15
 489 029a 3A1C     		mov	r2, r7
 490 029c 0F32     		add	r2, r2, #15
 491 029e 1278     		ldrb	r2, [r2]
 492 02a0 0A43     		orr	r2, r1
 493 02a2 1A70     		strb	r2, [r3]
 129:C:/Users/b01252/Documents/Freescale/L4K/software/kinetis_kl46_sc/src/drivers/llwu\llwu.c ****         printf("\n LLWU configured pins PTD2/SCI2_RX to be an LLWU wakeup source ");
 494              		.loc 1 129 0
 495 02a4 424B     		ldr	r3, .L20+56
 496 02a6 181C     		mov	r0, r3
 497 02a8 FFF7FEFF 		bl	printf
 130:C:/Users/b01252/Documents/Freescale/L4K/software/kinetis_kl46_sc/src/drivers/llwu\llwu.c ****         LLWU_F2 |= LLWU_F2_WUF13_MASK;   // write one to clear the flag
 498              		.loc 1 130 0
 499 02ac 324B     		ldr	r3, .L20
 500 02ae 324A     		ldr	r2, .L20
 501 02b0 9279     		ldrb	r2, [r2, #6]
 502 02b2 D2B2     		uxtb	r2, r2
 503 02b4 2021     		mov	r1, #32
 504 02b6 0A43     		orr	r2, r1
 505 02b8 D2B2     		uxtb	r2, r2
 506 02ba 9A71     		strb	r2, [r3, #6]
 507              	.L15:
 131:C:/Users/b01252/Documents/Freescale/L4K/software/kinetis_kl46_sc/src/drivers/llwu\llwu.c ****     }
 132:C:/Users/b01252/Documents/Freescale/L4K/software/kinetis_kl46_sc/src/drivers/llwu\llwu.c ****     if( pin_en & 0x4000)
 508              		.loc 1 132 0
 509 02bc 7A68     		ldr	r2, [r7, #4]
 510 02be 8023     		mov	r3, #128
 511 02c0 DB01     		lsl	r3, r3, #7
 512 02c2 1340     		and	r3, r2
 513 02c4 19D0     		beq	.L16
 133:C:/Users/b01252/Documents/Freescale/L4K/software/kinetis_kl46_sc/src/drivers/llwu\llwu.c ****     {
 134:C:/Users/b01252/Documents/Freescale/L4K/software/kinetis_kl46_sc/src/drivers/llwu\llwu.c ****         temp |= LLWU_PE4_WUPE14(rise_fall);
 514              		.loc 1 134 0
 515 02c6 FB1C     		add	r3, r7, #3
 516 02c8 1B78     		ldrb	r3, [r3]
 517 02ca 1B01     		lsl	r3, r3, #4
 518 02cc DAB2     		uxtb	r2, r3
 519 02ce 3023     		mov	r3, #48
 520 02d0 1340     		and	r3, r2
 521 02d2 D9B2     		uxtb	r1, r3
 522 02d4 3B1C     		mov	r3, r7
 523 02d6 0F33     		add	r3, r3, #15
 524 02d8 3A1C     		mov	r2, r7
 525 02da 0F32     		add	r2, r2, #15
 526 02dc 1278     		ldrb	r2, [r2]
 527 02de 0A43     		orr	r2, r1
 528 02e0 1A70     		strb	r2, [r3]
 135:C:/Users/b01252/Documents/Freescale/L4K/software/kinetis_kl46_sc/src/drivers/llwu\llwu.c ****         printf("\n LLWU configured pins PTD4/SCI0_RTS/FTM0_CH4/EWM_IN is LLWU wakeup source ");
 529              		.loc 1 135 0
 530 02e2 344B     		ldr	r3, .L20+60
 531 02e4 181C     		mov	r0, r3
 532 02e6 FFF7FEFF 		bl	printf
 136:C:/Users/b01252/Documents/Freescale/L4K/software/kinetis_kl46_sc/src/drivers/llwu\llwu.c ****         LLWU_F2 |= LLWU_F2_WUF14_MASK;   // write one to clear the flag
 533              		.loc 1 136 0
 534 02ea 234B     		ldr	r3, .L20
 535 02ec 224A     		ldr	r2, .L20
 536 02ee 9279     		ldrb	r2, [r2, #6]
 537 02f0 D2B2     		uxtb	r2, r2
 538 02f2 4021     		mov	r1, #64
 539 02f4 0A43     		orr	r2, r1
 540 02f6 D2B2     		uxtb	r2, r2
 541 02f8 9A71     		strb	r2, [r3, #6]
 542              	.L16:
 137:C:/Users/b01252/Documents/Freescale/L4K/software/kinetis_kl46_sc/src/drivers/llwu\llwu.c ****     }
 138:C:/Users/b01252/Documents/Freescale/L4K/software/kinetis_kl46_sc/src/drivers/llwu\llwu.c ****     if( pin_en & 0x8000)
 543              		.loc 1 138 0
 544 02fa 7A68     		ldr	r2, [r7, #4]
 545 02fc 8023     		mov	r3, #128
 546 02fe 1B02     		lsl	r3, r3, #8
 547 0300 1340     		and	r3, r2
 548 0302 17D0     		beq	.L17
 139:C:/Users/b01252/Documents/Freescale/L4K/software/kinetis_kl46_sc/src/drivers/llwu\llwu.c ****     {
 140:C:/Users/b01252/Documents/Freescale/L4K/software/kinetis_kl46_sc/src/drivers/llwu\llwu.c ****         temp |= LLWU_PE4_WUPE15(rise_fall);
 549              		.loc 1 140 0
 550 0304 FB1C     		add	r3, r7, #3
 551 0306 1B78     		ldrb	r3, [r3]
 552 0308 9B01     		lsl	r3, r3, #6
 553 030a D9B2     		uxtb	r1, r3
 554 030c 3B1C     		mov	r3, r7
 555 030e 0F33     		add	r3, r3, #15
 556 0310 3A1C     		mov	r2, r7
 557 0312 0F32     		add	r2, r2, #15
 558 0314 1278     		ldrb	r2, [r2]
 559 0316 0A43     		orr	r2, r1
 560 0318 1A70     		strb	r2, [r3]
 141:C:/Users/b01252/Documents/Freescale/L4K/software/kinetis_kl46_sc/src/drivers/llwu\llwu.c ****         printf("\n LLWU configured pins PTD6/SCI0_RX/FTM0_CH6/FTM0_FLT0 is LLWU wakeup source ");
 561              		.loc 1 141 0
 562 031a 274B     		ldr	r3, .L20+64
 563 031c 181C     		mov	r0, r3
 564 031e FFF7FEFF 		bl	printf
 142:C:/Users/b01252/Documents/Freescale/L4K/software/kinetis_kl46_sc/src/drivers/llwu\llwu.c ****         LLWU_F2 |= LLWU_F2_WUF15_MASK;   // write one to clear the flag
 565              		.loc 1 142 0
 566 0322 154B     		ldr	r3, .L20
 567 0324 144A     		ldr	r2, .L20
 568 0326 9279     		ldrb	r2, [r2, #6]
 569 0328 D2B2     		uxtb	r2, r2
 570 032a 8021     		mov	r1, #128
 571 032c 4942     		neg	r1, r1
 572 032e 0A43     		orr	r2, r1
 573 0330 D2B2     		uxtb	r2, r2
 574 0332 9A71     		strb	r2, [r3, #6]
 575              	.L17:
 143:C:/Users/b01252/Documents/Freescale/L4K/software/kinetis_kl46_sc/src/drivers/llwu\llwu.c ****     }
 144:C:/Users/b01252/Documents/Freescale/L4K/software/kinetis_kl46_sc/src/drivers/llwu\llwu.c ****     LLWU_PE4 = temp;
 576              		.loc 1 144 0
 577 0334 104B     		ldr	r3, .L20
 578 0336 3A1C     		mov	r2, r7
 579 0338 0F32     		add	r2, r2, #15
 580 033a 1278     		ldrb	r2, [r2]
 581 033c DA70     		strb	r2, [r3, #3]
 145:C:/Users/b01252/Documents/Freescale/L4K/software/kinetis_kl46_sc/src/drivers/llwu\llwu.c ****     if (module_en == 0){
 582              		.loc 1 145 0
 583 033e BB1C     		add	r3, r7, #2
 584 0340 1B78     		ldrb	r3, [r3]
 585 0342 002B     		cmp	r3, #0
 586 0344 03D1     		bne	.L18
 146:C:/Users/b01252/Documents/Freescale/L4K/software/kinetis_kl46_sc/src/drivers/llwu\llwu.c ****       LLWU_ME = 0;
 587              		.loc 1 146 0
 588 0346 0C4B     		ldr	r3, .L20
 589 0348 0022     		mov	r2, #0
 590 034a 1A71     		strb	r2, [r3, #4]
 591 034c 10E0     		b	.L1
 592              	.L18:
 147:C:/Users/b01252/Documents/Freescale/L4K/software/kinetis_kl46_sc/src/drivers/llwu\llwu.c ****     }else  {
 148:C:/Users/b01252/Documents/Freescale/L4K/software/kinetis_kl46_sc/src/drivers/llwu\llwu.c ****     LLWU_ME |= module_en;  //Set up more modules to wakeup up
 593              		.loc 1 148 0
 594 034e 0A4B     		ldr	r3, .L20
 595 0350 094A     		ldr	r2, .L20
 596 0352 1279     		ldrb	r2, [r2, #4]
 597 0354 D1B2     		uxtb	r1, r2
 598 0356 BA1C     		add	r2, r7, #2
 599 0358 1278     		ldrb	r2, [r2]
 600 035a 0A43     		orr	r2, r1
 601 035c D2B2     		uxtb	r2, r2
 602 035e 1A71     		strb	r2, [r3, #4]
 149:C:/Users/b01252/Documents/Freescale/L4K/software/kinetis_kl46_sc/src/drivers/llwu\llwu.c ****     printf("\n LLWU configured modules as LLWU wakeup sources = 0x%02X,",(LLWU_ME));
 603              		.loc 1 149 0
 604 0360 054B     		ldr	r3, .L20
 605 0362 1B79     		ldrb	r3, [r3, #4]
 606 0364 DBB2     		uxtb	r3, r3
 607 0366 154A     		ldr	r2, .L20+68
 608 0368 101C     		mov	r0, r2
 609 036a 191C     		mov	r1, r3
 610 036c FFF7FEFF 		bl	printf
 611              	.L1:
 150:C:/Users/b01252/Documents/Freescale/L4K/software/kinetis_kl46_sc/src/drivers/llwu\llwu.c **** 
 151:C:/Users/b01252/Documents/Freescale/L4K/software/kinetis_kl46_sc/src/drivers/llwu\llwu.c ****     }
 152:C:/Users/b01252/Documents/Freescale/L4K/software/kinetis_kl46_sc/src/drivers/llwu\llwu.c **** } // End LLWU Configuration
 612              		.loc 1 152 0
 613 0370 BD46     		mov	sp, r7
 614 0372 04B0     		add	sp, sp, #16
 615              		@ sp needed for prologue
 616 0374 80BD     		pop	{r7, pc}
 617              	.L21:
 618 0376 C046     		.align	2
 619              	.L20:
 620 0378 00C00740 		.word	1074249728
 621 037c 00000000 		.word	.LC0
 622 0380 40000000 		.word	.LC2
 623 0384 78000000 		.word	.LC4
 624 0388 B0000000 		.word	.LC6
 625 038c E8000000 		.word	.LC8
 626 0390 24010000 		.word	.LC10
 627 0394 78010000 		.word	.LC12
 628 0398 C0010000 		.word	.LC14
 629 039c 04020000 		.word	.LC16
 630 03a0 4C020000 		.word	.LC18
 631 03a4 94020000 		.word	.LC20
 632 03a8 D8020000 		.word	.LC22
 633 03ac 1C030000 		.word	.LC24
 634 03b0 68030000 		.word	.LC26
 635 03b4 AC030000 		.word	.LC28
 636 03b8 F8030000 		.word	.LC30
 637 03bc 48040000 		.word	.LC32
 638              		.cfi_endproc
 639              	.LFE0:
 641              		.section	.rodata
 642 0483 00       		.align	2
 643              	.LC34:
 644 0484 0A456E61 		.ascii	"\012Enabling Filter %x on WU Pin %x for WU sense %x"
 644      626C696E 
 644      67204669 
 644      6C746572 
 644      20257820 
 645 04b4 200A00   		.ascii	" \012\000"
 646 04b7 00       		.align	2
 647              	.LC36:
 648 04b8 0A457272 		.ascii	"\012Error - invalid filter number\000"
 648      6F72202D 
 648      20696E76 
 648      616C6964 
 648      2066696C 
 649 04d7 00       		.section	.text.llwu_configure_filter,"ax",%progbits
 650              		.align	2
 651              		.global	llwu_configure_filter
 652              		.code	16
 653              		.thumb_func
 655              	llwu_configure_filter:
 656              	.LFB1:
 153:C:/Users/b01252/Documents/Freescale/L4K/software/kinetis_kl46_sc/src/drivers/llwu\llwu.c **** 
 154:C:/Users/b01252/Documents/Freescale/L4K/software/kinetis_kl46_sc/src/drivers/llwu\llwu.c **** 
 155:C:/Users/b01252/Documents/Freescale/L4K/software/kinetis_kl46_sc/src/drivers/llwu\llwu.c **** void llwu_configure_filter(unsigned int wu_pin_num, unsigned char filter_en, unsigned char rise_fal
 156:C:/Users/b01252/Documents/Freescale/L4K/software/kinetis_kl46_sc/src/drivers/llwu\llwu.c **** {
 657              		.loc 1 156 0
 658              		.cfi_startproc
 659 0000 80B5     		push	{r7, lr}
 660              	.LCFI3:
 661              		.cfi_def_cfa_offset 8
 662              		.cfi_offset 7, -8
 663              		.cfi_offset 14, -4
 664 0002 84B0     		sub	sp, sp, #16
 665              	.LCFI4:
 666              		.cfi_def_cfa_offset 24
 667 0004 00AF     		add	r7, sp, #0
 668              	.LCFI5:
 669              		.cfi_def_cfa_register 7
 670 0006 7860     		str	r0, [r7, #4]
 671 0008 FB1C     		add	r3, r7, #3
 672 000a 1970     		strb	r1, [r3]
 673 000c BB1C     		add	r3, r7, #2
 674 000e 1A70     		strb	r2, [r3]
 157:C:/Users/b01252/Documents/Freescale/L4K/software/kinetis_kl46_sc/src/drivers/llwu\llwu.c ****    //wu_pin_num is the pin number to be written to FILTSEL.  wu_pin_num is not the same as pin_en. 
 158:C:/Users/b01252/Documents/Freescale/L4K/software/kinetis_kl46_sc/src/drivers/llwu\llwu.c ****     uint8 temp;
 159:C:/Users/b01252/Documents/Freescale/L4K/software/kinetis_kl46_sc/src/drivers/llwu\llwu.c **** 
 160:C:/Users/b01252/Documents/Freescale/L4K/software/kinetis_kl46_sc/src/drivers/llwu\llwu.c ****     printf("\nEnabling Filter %x on WU Pin %x for WU sense %x \n",filter_en, wu_pin_num, rise_fall)
 675              		.loc 1 160 0
 676 0010 FB1C     		add	r3, r7, #3
 677 0012 1978     		ldrb	r1, [r3]
 678 0014 BB1C     		add	r3, r7, #2
 679 0016 1B78     		ldrb	r3, [r3]
 680 0018 2D48     		ldr	r0, .L26
 681 001a 7A68     		ldr	r2, [r7, #4]
 682 001c FFF7FEFF 		bl	printf
 161:C:/Users/b01252/Documents/Freescale/L4K/software/kinetis_kl46_sc/src/drivers/llwu\llwu.c ****    
 162:C:/Users/b01252/Documents/Freescale/L4K/software/kinetis_kl46_sc/src/drivers/llwu\llwu.c ****      temp = 0;
 683              		.loc 1 162 0
 684 0020 3B1C     		mov	r3, r7
 685 0022 0F33     		add	r3, r3, #15
 686 0024 0022     		mov	r2, #0
 687 0026 1A70     		strb	r2, [r3]
 163:C:/Users/b01252/Documents/Freescale/L4K/software/kinetis_kl46_sc/src/drivers/llwu\llwu.c ****      //first clear filter values and clear flag by writing a 1
 164:C:/Users/b01252/Documents/Freescale/L4K/software/kinetis_kl46_sc/src/drivers/llwu\llwu.c ****      LLWU_FILT1 = LLWU_FILT1_FILTF_MASK;
 688              		.loc 1 164 0
 689 0028 2A4B     		ldr	r3, .L26+4
 690 002a 8022     		mov	r2, #128
 691 002c 1A72     		strb	r2, [r3, #8]
 165:C:/Users/b01252/Documents/Freescale/L4K/software/kinetis_kl46_sc/src/drivers/llwu\llwu.c ****      LLWU_FILT2 = LLWU_FILT2_FILTF_MASK;
 692              		.loc 1 165 0
 693 002e 294B     		ldr	r3, .L26+4
 694 0030 8022     		mov	r2, #128
 695 0032 5A72     		strb	r2, [r3, #9]
 166:C:/Users/b01252/Documents/Freescale/L4K/software/kinetis_kl46_sc/src/drivers/llwu\llwu.c ****      
 167:C:/Users/b01252/Documents/Freescale/L4K/software/kinetis_kl46_sc/src/drivers/llwu\llwu.c ****      if(filter_en == 1)
 696              		.loc 1 167 0
 697 0034 FB1C     		add	r3, r7, #3
 698 0036 1B78     		ldrb	r3, [r3]
 699 0038 012B     		cmp	r3, #1
 700 003a 1ED1     		bne	.L23
 168:C:/Users/b01252/Documents/Freescale/L4K/software/kinetis_kl46_sc/src/drivers/llwu\llwu.c ****      {
 169:C:/Users/b01252/Documents/Freescale/L4K/software/kinetis_kl46_sc/src/drivers/llwu\llwu.c ****     	 //clear the flag bit and set the others
 170:C:/Users/b01252/Documents/Freescale/L4K/software/kinetis_kl46_sc/src/drivers/llwu\llwu.c ****          temp |= (LLWU_FILT1_FILTF_MASK) | (LLWU_FILT1_FILTE(rise_fall) | LLWU_FILT1_FILTSEL(wu_pin
 701              		.loc 1 170 0
 702 003c BB1C     		add	r3, r7, #2
 703 003e 1B78     		ldrb	r3, [r3]
 704 0040 5B01     		lsl	r3, r3, #5
 705 0042 DAB2     		uxtb	r2, r3
 706 0044 6023     		mov	r3, #96
 707 0046 1340     		and	r3, r2
 708 0048 DAB2     		uxtb	r2, r3
 709 004a 7B68     		ldr	r3, [r7, #4]
 710 004c D9B2     		uxtb	r1, r3
 711 004e 0F23     		mov	r3, #15
 712 0050 0B40     		and	r3, r1
 713 0052 DBB2     		uxtb	r3, r3
 714 0054 1343     		orr	r3, r2
 715 0056 DAB2     		uxtb	r2, r3
 716 0058 3B1C     		mov	r3, r7
 717 005a 0F33     		add	r3, r3, #15
 718 005c 1B78     		ldrb	r3, [r3]
 719 005e 1343     		orr	r3, r2
 720 0060 DAB2     		uxtb	r2, r3
 721 0062 3B1C     		mov	r3, r7
 722 0064 0F33     		add	r3, r3, #15
 723 0066 8021     		mov	r1, #128
 724 0068 4942     		neg	r1, r1
 725 006a 0A43     		orr	r2, r1
 726 006c 1A70     		strb	r2, [r3]
 171:C:/Users/b01252/Documents/Freescale/L4K/software/kinetis_kl46_sc/src/drivers/llwu\llwu.c ****          LLWU_FILT1 = temp;
 727              		.loc 1 171 0
 728 006e 194B     		ldr	r3, .L26+4
 729 0070 3A1C     		mov	r2, r7
 730 0072 0F32     		add	r2, r2, #15
 731 0074 1278     		ldrb	r2, [r2]
 732 0076 1A72     		strb	r2, [r3, #8]
 733 0078 26E0     		b	.L22
 734              	.L23:
 172:C:/Users/b01252/Documents/Freescale/L4K/software/kinetis_kl46_sc/src/drivers/llwu\llwu.c ****          
 173:C:/Users/b01252/Documents/Freescale/L4K/software/kinetis_kl46_sc/src/drivers/llwu\llwu.c ****      }else if (filter_en == 2)
 735              		.loc 1 173 0
 736 007a FB1C     		add	r3, r7, #3
 737 007c 1B78     		ldrb	r3, [r3]
 738 007e 022B     		cmp	r3, #2
 739 0080 1ED1     		bne	.L25
 174:C:/Users/b01252/Documents/Freescale/L4K/software/kinetis_kl46_sc/src/drivers/llwu\llwu.c ****      {
 175:C:/Users/b01252/Documents/Freescale/L4K/software/kinetis_kl46_sc/src/drivers/llwu\llwu.c ****     	 //clear the flag bit and set the others
 176:C:/Users/b01252/Documents/Freescale/L4K/software/kinetis_kl46_sc/src/drivers/llwu\llwu.c ****     	 temp |= (LLWU_FILT2_FILTF_MASK) | (LLWU_FILT2_FILTE(rise_fall) | LLWU_FILT2_FILTSEL(wu_pin_nu
 740              		.loc 1 176 0
 741 0082 BB1C     		add	r3, r7, #2
 742 0084 1B78     		ldrb	r3, [r3]
 743 0086 5B01     		lsl	r3, r3, #5
 744 0088 DAB2     		uxtb	r2, r3
 745 008a 6023     		mov	r3, #96
 746 008c 1340     		and	r3, r2
 747 008e DAB2     		uxtb	r2, r3
 748 0090 7B68     		ldr	r3, [r7, #4]
 749 0092 D9B2     		uxtb	r1, r3
 750 0094 0F23     		mov	r3, #15
 751 0096 0B40     		and	r3, r1
 752 0098 DBB2     		uxtb	r3, r3
 753 009a 1343     		orr	r3, r2
 754 009c DAB2     		uxtb	r2, r3
 755 009e 3B1C     		mov	r3, r7
 756 00a0 0F33     		add	r3, r3, #15
 757 00a2 1B78     		ldrb	r3, [r3]
 758 00a4 1343     		orr	r3, r2
 759 00a6 DAB2     		uxtb	r2, r3
 760 00a8 3B1C     		mov	r3, r7
 761 00aa 0F33     		add	r3, r3, #15
 762 00ac 8021     		mov	r1, #128
 763 00ae 4942     		neg	r1, r1
 764 00b0 0A43     		orr	r2, r1
 765 00b2 1A70     		strb	r2, [r3]
 177:C:/Users/b01252/Documents/Freescale/L4K/software/kinetis_kl46_sc/src/drivers/llwu\llwu.c ****          LLWU_FILT2 = temp;
 766              		.loc 1 177 0
 767 00b4 074B     		ldr	r3, .L26+4
 768 00b6 3A1C     		mov	r2, r7
 769 00b8 0F32     		add	r2, r2, #15
 770 00ba 1278     		ldrb	r2, [r2]
 771 00bc 5A72     		strb	r2, [r3, #9]
 772 00be 03E0     		b	.L22
 773              	.L25:
 178:C:/Users/b01252/Documents/Freescale/L4K/software/kinetis_kl46_sc/src/drivers/llwu\llwu.c ****      }else
 179:C:/Users/b01252/Documents/Freescale/L4K/software/kinetis_kl46_sc/src/drivers/llwu\llwu.c ****      {
 180:C:/Users/b01252/Documents/Freescale/L4K/software/kinetis_kl46_sc/src/drivers/llwu\llwu.c ****     	 printf("\nError - invalid filter number\n"); 
 774              		.loc 1 180 0
 775 00c0 054B     		ldr	r3, .L26+8
 776 00c2 181C     		mov	r0, r3
 777 00c4 FFF7FEFF 		bl	puts
 778              	.L22:
 181:C:/Users/b01252/Documents/Freescale/L4K/software/kinetis_kl46_sc/src/drivers/llwu\llwu.c ****      }
 182:C:/Users/b01252/Documents/Freescale/L4K/software/kinetis_kl46_sc/src/drivers/llwu\llwu.c **** }    
 779              		.loc 1 182 0
 780 00c8 BD46     		mov	sp, r7
 781 00ca 04B0     		add	sp, sp, #16
 782              		@ sp needed for prologue
 783 00cc 80BD     		pop	{r7, pc}
 784              	.L27:
 785 00ce C046     		.align	2
 786              	.L26:
 787 00d0 84040000 		.word	.LC34
 788 00d4 00C00740 		.word	1074249728
 789 00d8 B8040000 		.word	.LC36
 790              		.cfi_endproc
 791              	.LFE1:
 793              		.section	.text.llwu_isr,"ax",%progbits
 794              		.align	2
 795              		.global	llwu_isr
 796              		.code	16
 797              		.thumb_func
 799              	llwu_isr:
 800              	.LFB2:
 183:C:/Users/b01252/Documents/Freescale/L4K/software/kinetis_kl46_sc/src/drivers/llwu\llwu.c ****     
 184:C:/Users/b01252/Documents/Freescale/L4K/software/kinetis_kl46_sc/src/drivers/llwu\llwu.c **** //Interrupt handler for LLWU 
 185:C:/Users/b01252/Documents/Freescale/L4K/software/kinetis_kl46_sc/src/drivers/llwu\llwu.c **** #ifdef CMSIS
 186:C:/Users/b01252/Documents/Freescale/L4K/software/kinetis_kl46_sc/src/drivers/llwu\llwu.c **** void LLW_IRQHandler(void) {
 187:C:/Users/b01252/Documents/Freescale/L4K/software/kinetis_kl46_sc/src/drivers/llwu\llwu.c **** #else
 188:C:/Users/b01252/Documents/Freescale/L4K/software/kinetis_kl46_sc/src/drivers/llwu\llwu.c **** void llwu_isr(void){
 801              		.loc 1 188 0
 802              		.cfi_startproc
 803 0000 80B5     		push	{r7, lr}
 804              	.LCFI6:
 805              		.cfi_def_cfa_offset 8
 806              		.cfi_offset 7, -8
 807              		.cfi_offset 14, -4
 808 0002 00AF     		add	r7, sp, #0
 809              	.LCFI7:
 810              		.cfi_def_cfa_register 7
 189:C:/Users/b01252/Documents/Freescale/L4K/software/kinetis_kl46_sc/src/drivers/llwu\llwu.c **** #endif
 190:C:/Users/b01252/Documents/Freescale/L4K/software/kinetis_kl46_sc/src/drivers/llwu\llwu.c ****    //printf("\n [LLWU ISR] "); 
 191:C:/Users/b01252/Documents/Freescale/L4K/software/kinetis_kl46_sc/src/drivers/llwu\llwu.c ****    if (LLWU_F1 & LLWU_F1_WUF5_MASK) {
 811              		.loc 1 191 0
 812 0004 754B     		ldr	r3, .L43
 813 0006 5B79     		ldrb	r3, [r3, #5]
 814 0008 DBB2     		uxtb	r3, r3
 815 000a 1A1C     		mov	r2, r3
 816 000c 2023     		mov	r3, #32
 817 000e 1340     		and	r3, r2
 818 0010 07D0     		beq	.L29
 192:C:/Users/b01252/Documents/Freescale/L4K/software/kinetis_kl46_sc/src/drivers/llwu\llwu.c ****    //    printf("****WUF5 was set *****\r\n"); 
 193:C:/Users/b01252/Documents/Freescale/L4K/software/kinetis_kl46_sc/src/drivers/llwu\llwu.c ****        LLWU_F1 |= LLWU_F1_WUF5_MASK;   // write one to clear the flag
 819              		.loc 1 193 0
 820 0012 724B     		ldr	r3, .L43
 821 0014 714A     		ldr	r2, .L43
 822 0016 5279     		ldrb	r2, [r2, #5]
 823 0018 D2B2     		uxtb	r2, r2
 824 001a 2021     		mov	r1, #32
 825 001c 0A43     		orr	r2, r1
 826 001e D2B2     		uxtb	r2, r2
 827 0020 5A71     		strb	r2, [r3, #5]
 828              	.L29:
 194:C:/Users/b01252/Documents/Freescale/L4K/software/kinetis_kl46_sc/src/drivers/llwu\llwu.c ****    }
 195:C:/Users/b01252/Documents/Freescale/L4K/software/kinetis_kl46_sc/src/drivers/llwu\llwu.c ****    if (LLWU_F1 & LLWU_F1_WUF6_MASK) {
 829              		.loc 1 195 0
 830 0022 6E4B     		ldr	r3, .L43
 831 0024 5B79     		ldrb	r3, [r3, #5]
 832 0026 DBB2     		uxtb	r3, r3
 833 0028 1A1C     		mov	r2, r3
 834 002a 4023     		mov	r3, #64
 835 002c 1340     		and	r3, r2
 836 002e 07D0     		beq	.L30
 196:C:/Users/b01252/Documents/Freescale/L4K/software/kinetis_kl46_sc/src/drivers/llwu\llwu.c ****    //    printf("****WUF6 was set *****\r\n"); 
 197:C:/Users/b01252/Documents/Freescale/L4K/software/kinetis_kl46_sc/src/drivers/llwu\llwu.c ****        LLWU_F1 |= LLWU_F1_WUF6_MASK;   // write one to clear the flag
 837              		.loc 1 197 0
 838 0030 6A4B     		ldr	r3, .L43
 839 0032 6A4A     		ldr	r2, .L43
 840 0034 5279     		ldrb	r2, [r2, #5]
 841 0036 D2B2     		uxtb	r2, r2
 842 0038 4021     		mov	r1, #64
 843 003a 0A43     		orr	r2, r1
 844 003c D2B2     		uxtb	r2, r2
 845 003e 5A71     		strb	r2, [r3, #5]
 846              	.L30:
 198:C:/Users/b01252/Documents/Freescale/L4K/software/kinetis_kl46_sc/src/drivers/llwu\llwu.c ****     }
 199:C:/Users/b01252/Documents/Freescale/L4K/software/kinetis_kl46_sc/src/drivers/llwu\llwu.c ****    if (LLWU_F1 & LLWU_F1_WUF7_MASK) {
 847              		.loc 1 199 0
 848 0040 664B     		ldr	r3, .L43
 849 0042 5B79     		ldrb	r3, [r3, #5]
 850 0044 DBB2     		uxtb	r3, r3
 851 0046 DBB2     		uxtb	r3, r3
 852 0048 5BB2     		sxtb	r3, r3
 853 004a 002B     		cmp	r3, #0
 854 004c 08DA     		bge	.L31
 200:C:/Users/b01252/Documents/Freescale/L4K/software/kinetis_kl46_sc/src/drivers/llwu\llwu.c ****    //    printf("****WUF7 was set from PTC3 input  *****\r\n"); 
 201:C:/Users/b01252/Documents/Freescale/L4K/software/kinetis_kl46_sc/src/drivers/llwu\llwu.c ****        LLWU_F1 |= LLWU_F1_WUF7_MASK;   // write one to clear the flag
 855              		.loc 1 201 0
 856 004e 634B     		ldr	r3, .L43
 857 0050 624A     		ldr	r2, .L43
 858 0052 5279     		ldrb	r2, [r2, #5]
 859 0054 D2B2     		uxtb	r2, r2
 860 0056 8021     		mov	r1, #128
 861 0058 4942     		neg	r1, r1
 862 005a 0A43     		orr	r2, r1
 863 005c D2B2     		uxtb	r2, r2
 864 005e 5A71     		strb	r2, [r3, #5]
 865              	.L31:
 202:C:/Users/b01252/Documents/Freescale/L4K/software/kinetis_kl46_sc/src/drivers/llwu\llwu.c ****    }
 203:C:/Users/b01252/Documents/Freescale/L4K/software/kinetis_kl46_sc/src/drivers/llwu\llwu.c ****    if (LLWU_F2 & LLWU_F2_WUF8_MASK) {
 866              		.loc 1 203 0
 867 0060 5E4B     		ldr	r3, .L43
 868 0062 9B79     		ldrb	r3, [r3, #6]
 869 0064 DBB2     		uxtb	r3, r3
 870 0066 1A1C     		mov	r2, r3
 871 0068 0123     		mov	r3, #1
 872 006a 1340     		and	r3, r2
 873 006c 07D0     		beq	.L32
 204:C:/Users/b01252/Documents/Freescale/L4K/software/kinetis_kl46_sc/src/drivers/llwu\llwu.c ****    //    printf("****WUF8 was set *****\r\n"); 
 205:C:/Users/b01252/Documents/Freescale/L4K/software/kinetis_kl46_sc/src/drivers/llwu\llwu.c ****        LLWU_F2 |= LLWU_F2_WUF8_MASK;   // write one to clear the flag
 874              		.loc 1 205 0
 875 006e 5B4B     		ldr	r3, .L43
 876 0070 5A4A     		ldr	r2, .L43
 877 0072 9279     		ldrb	r2, [r2, #6]
 878 0074 D2B2     		uxtb	r2, r2
 879 0076 0121     		mov	r1, #1
 880 0078 0A43     		orr	r2, r1
 881 007a D2B2     		uxtb	r2, r2
 882 007c 9A71     		strb	r2, [r3, #6]
 883              	.L32:
 206:C:/Users/b01252/Documents/Freescale/L4K/software/kinetis_kl46_sc/src/drivers/llwu\llwu.c ****    }
 207:C:/Users/b01252/Documents/Freescale/L4K/software/kinetis_kl46_sc/src/drivers/llwu\llwu.c ****    if (LLWU_F2 & LLWU_F2_WUF9_MASK) {
 884              		.loc 1 207 0
 885 007e 574B     		ldr	r3, .L43
 886 0080 9B79     		ldrb	r3, [r3, #6]
 887 0082 DBB2     		uxtb	r3, r3
 888 0084 1A1C     		mov	r2, r3
 889 0086 0223     		mov	r3, #2
 890 0088 1340     		and	r3, r2
 891 008a 07D0     		beq	.L33
 208:C:/Users/b01252/Documents/Freescale/L4K/software/kinetis_kl46_sc/src/drivers/llwu\llwu.c ****    //    printf("****WUF9 was set *****\r\n"); 
 209:C:/Users/b01252/Documents/Freescale/L4K/software/kinetis_kl46_sc/src/drivers/llwu\llwu.c ****        LLWU_F2 |= LLWU_F2_WUF9_MASK;   // write one to clear the flag
 892              		.loc 1 209 0
 893 008c 534B     		ldr	r3, .L43
 894 008e 534A     		ldr	r2, .L43
 895 0090 9279     		ldrb	r2, [r2, #6]
 896 0092 D2B2     		uxtb	r2, r2
 897 0094 0221     		mov	r1, #2
 898 0096 0A43     		orr	r2, r1
 899 0098 D2B2     		uxtb	r2, r2
 900 009a 9A71     		strb	r2, [r3, #6]
 901              	.L33:
 210:C:/Users/b01252/Documents/Freescale/L4K/software/kinetis_kl46_sc/src/drivers/llwu\llwu.c ****    }
 211:C:/Users/b01252/Documents/Freescale/L4K/software/kinetis_kl46_sc/src/drivers/llwu\llwu.c ****    if (LLWU_F2 & LLWU_F2_WUF10_MASK) {
 902              		.loc 1 211 0
 903 009c 4F4B     		ldr	r3, .L43
 904 009e 9B79     		ldrb	r3, [r3, #6]
 905 00a0 DBB2     		uxtb	r3, r3
 906 00a2 1A1C     		mov	r2, r3
 907 00a4 0423     		mov	r3, #4
 908 00a6 1340     		and	r3, r2
 909 00a8 07D0     		beq	.L34
 212:C:/Users/b01252/Documents/Freescale/L4K/software/kinetis_kl46_sc/src/drivers/llwu\llwu.c ****    //    printf("****WUF10 was set *****\r\n"); 
 213:C:/Users/b01252/Documents/Freescale/L4K/software/kinetis_kl46_sc/src/drivers/llwu\llwu.c ****        LLWU_F2 |= LLWU_F2_WUF10_MASK;   // write one to clear the flag
 910              		.loc 1 213 0
 911 00aa 4C4B     		ldr	r3, .L43
 912 00ac 4B4A     		ldr	r2, .L43
 913 00ae 9279     		ldrb	r2, [r2, #6]
 914 00b0 D2B2     		uxtb	r2, r2
 915 00b2 0421     		mov	r1, #4
 916 00b4 0A43     		orr	r2, r1
 917 00b6 D2B2     		uxtb	r2, r2
 918 00b8 9A71     		strb	r2, [r3, #6]
 919              	.L34:
 214:C:/Users/b01252/Documents/Freescale/L4K/software/kinetis_kl46_sc/src/drivers/llwu\llwu.c ****    }
 215:C:/Users/b01252/Documents/Freescale/L4K/software/kinetis_kl46_sc/src/drivers/llwu\llwu.c ****    if (LLWU_F2 & LLWU_F2_WUF11_MASK) {
 920              		.loc 1 215 0
 921 00ba 484B     		ldr	r3, .L43
 922 00bc 9B79     		ldrb	r3, [r3, #6]
 923 00be DBB2     		uxtb	r3, r3
 924 00c0 1A1C     		mov	r2, r3
 925 00c2 0823     		mov	r3, #8
 926 00c4 1340     		and	r3, r2
 927 00c6 07D0     		beq	.L35
 216:C:/Users/b01252/Documents/Freescale/L4K/software/kinetis_kl46_sc/src/drivers/llwu\llwu.c ****    //    printf("****WUF11 was set *****\r\n"); 
 217:C:/Users/b01252/Documents/Freescale/L4K/software/kinetis_kl46_sc/src/drivers/llwu\llwu.c ****        LLWU_F2 |= LLWU_F2_WUF11_MASK;   // write one to clear the flag
 928              		.loc 1 217 0
 929 00c8 444B     		ldr	r3, .L43
 930 00ca 444A     		ldr	r2, .L43
 931 00cc 9279     		ldrb	r2, [r2, #6]
 932 00ce D2B2     		uxtb	r2, r2
 933 00d0 0821     		mov	r1, #8
 934 00d2 0A43     		orr	r2, r1
 935 00d4 D2B2     		uxtb	r2, r2
 936 00d6 9A71     		strb	r2, [r3, #6]
 937              	.L35:
 218:C:/Users/b01252/Documents/Freescale/L4K/software/kinetis_kl46_sc/src/drivers/llwu\llwu.c ****    }
 219:C:/Users/b01252/Documents/Freescale/L4K/software/kinetis_kl46_sc/src/drivers/llwu\llwu.c ****    if (LLWU_F2 & LLWU_F2_WUF12_MASK) {
 938              		.loc 1 219 0
 939 00d8 404B     		ldr	r3, .L43
 940 00da 9B79     		ldrb	r3, [r3, #6]
 941 00dc DBB2     		uxtb	r3, r3
 942 00de 1A1C     		mov	r2, r3
 943 00e0 1023     		mov	r3, #16
 944 00e2 1340     		and	r3, r2
 945 00e4 07D0     		beq	.L36
 220:C:/Users/b01252/Documents/Freescale/L4K/software/kinetis_kl46_sc/src/drivers/llwu\llwu.c ****    //    printf("****WUF12 was set *****\r\n"); 
 221:C:/Users/b01252/Documents/Freescale/L4K/software/kinetis_kl46_sc/src/drivers/llwu\llwu.c ****        LLWU_F2 |= LLWU_F2_WUF12_MASK;   // write one to clear the flag
 946              		.loc 1 221 0
 947 00e6 3D4B     		ldr	r3, .L43
 948 00e8 3C4A     		ldr	r2, .L43
 949 00ea 9279     		ldrb	r2, [r2, #6]
 950 00ec D2B2     		uxtb	r2, r2
 951 00ee 1021     		mov	r1, #16
 952 00f0 0A43     		orr	r2, r1
 953 00f2 D2B2     		uxtb	r2, r2
 954 00f4 9A71     		strb	r2, [r3, #6]
 955              	.L36:
 222:C:/Users/b01252/Documents/Freescale/L4K/software/kinetis_kl46_sc/src/drivers/llwu\llwu.c ****    }
 223:C:/Users/b01252/Documents/Freescale/L4K/software/kinetis_kl46_sc/src/drivers/llwu\llwu.c ****    if (LLWU_F2 & LLWU_F2_WUF13_MASK) {
 956              		.loc 1 223 0
 957 00f6 394B     		ldr	r3, .L43
 958 00f8 9B79     		ldrb	r3, [r3, #6]
 959 00fa DBB2     		uxtb	r3, r3
 960 00fc 1A1C     		mov	r2, r3
 961 00fe 2023     		mov	r3, #32
 962 0100 1340     		and	r3, r2
 963 0102 07D0     		beq	.L37
 224:C:/Users/b01252/Documents/Freescale/L4K/software/kinetis_kl46_sc/src/drivers/llwu\llwu.c ****    //    printf("****WUF13 was set *****\r\n"); 
 225:C:/Users/b01252/Documents/Freescale/L4K/software/kinetis_kl46_sc/src/drivers/llwu\llwu.c ****        LLWU_F2 |= LLWU_F2_WUF13_MASK;   // write one to clear the flag
 964              		.loc 1 225 0
 965 0104 354B     		ldr	r3, .L43
 966 0106 354A     		ldr	r2, .L43
 967 0108 9279     		ldrb	r2, [r2, #6]
 968 010a D2B2     		uxtb	r2, r2
 969 010c 2021     		mov	r1, #32
 970 010e 0A43     		orr	r2, r1
 971 0110 D2B2     		uxtb	r2, r2
 972 0112 9A71     		strb	r2, [r3, #6]
 973              	.L37:
 226:C:/Users/b01252/Documents/Freescale/L4K/software/kinetis_kl46_sc/src/drivers/llwu\llwu.c ****    }
 227:C:/Users/b01252/Documents/Freescale/L4K/software/kinetis_kl46_sc/src/drivers/llwu\llwu.c ****    if (LLWU_F2 & LLWU_F2_WUF14_MASK) {
 974              		.loc 1 227 0
 975 0114 314B     		ldr	r3, .L43
 976 0116 9B79     		ldrb	r3, [r3, #6]
 977 0118 DBB2     		uxtb	r3, r3
 978 011a 1A1C     		mov	r2, r3
 979 011c 4023     		mov	r3, #64
 980 011e 1340     		and	r3, r2
 981 0120 07D0     		beq	.L38
 228:C:/Users/b01252/Documents/Freescale/L4K/software/kinetis_kl46_sc/src/drivers/llwu\llwu.c ****    //    printf("****WUF14 was set *****\r\n"); 
 229:C:/Users/b01252/Documents/Freescale/L4K/software/kinetis_kl46_sc/src/drivers/llwu\llwu.c ****        LLWU_F2 |= LLWU_F2_WUF14_MASK;   // write one to clear the flag
 982              		.loc 1 229 0
 983 0122 2E4B     		ldr	r3, .L43
 984 0124 2D4A     		ldr	r2, .L43
 985 0126 9279     		ldrb	r2, [r2, #6]
 986 0128 D2B2     		uxtb	r2, r2
 987 012a 4021     		mov	r1, #64
 988 012c 0A43     		orr	r2, r1
 989 012e D2B2     		uxtb	r2, r2
 990 0130 9A71     		strb	r2, [r3, #6]
 991              	.L38:
 230:C:/Users/b01252/Documents/Freescale/L4K/software/kinetis_kl46_sc/src/drivers/llwu\llwu.c ****    }
 231:C:/Users/b01252/Documents/Freescale/L4K/software/kinetis_kl46_sc/src/drivers/llwu\llwu.c ****    if (LLWU_F2 & LLWU_F2_WUF15_MASK) {
 992              		.loc 1 231 0
 993 0132 2A4B     		ldr	r3, .L43
 994 0134 9B79     		ldrb	r3, [r3, #6]
 995 0136 DBB2     		uxtb	r3, r3
 996 0138 DBB2     		uxtb	r3, r3
 997 013a 5BB2     		sxtb	r3, r3
 998 013c 002B     		cmp	r3, #0
 999 013e 08DA     		bge	.L39
 232:C:/Users/b01252/Documents/Freescale/L4K/software/kinetis_kl46_sc/src/drivers/llwu\llwu.c ****    //    printf("****WUF15 was set *****\r\n"); 
 233:C:/Users/b01252/Documents/Freescale/L4K/software/kinetis_kl46_sc/src/drivers/llwu\llwu.c ****        LLWU_F2 |= LLWU_F2_WUF15_MASK;   // write one to clear the flag
 1000              		.loc 1 233 0
 1001 0140 264B     		ldr	r3, .L43
 1002 0142 264A     		ldr	r2, .L43
 1003 0144 9279     		ldrb	r2, [r2, #6]
 1004 0146 D2B2     		uxtb	r2, r2
 1005 0148 8021     		mov	r1, #128
 1006 014a 4942     		neg	r1, r1
 1007 014c 0A43     		orr	r2, r1
 1008 014e D2B2     		uxtb	r2, r2
 1009 0150 9A71     		strb	r2, [r3, #6]
 1010              	.L39:
 234:C:/Users/b01252/Documents/Freescale/L4K/software/kinetis_kl46_sc/src/drivers/llwu\llwu.c ****    }
 235:C:/Users/b01252/Documents/Freescale/L4K/software/kinetis_kl46_sc/src/drivers/llwu\llwu.c ****    
 236:C:/Users/b01252/Documents/Freescale/L4K/software/kinetis_kl46_sc/src/drivers/llwu\llwu.c ****    /************************************************************************
 237:C:/Users/b01252/Documents/Freescale/L4K/software/kinetis_kl46_sc/src/drivers/llwu\llwu.c ****     * Note: This ISR does not write to the LLWU_F3 register because these
 238:C:/Users/b01252/Documents/Freescale/L4K/software/kinetis_kl46_sc/src/drivers/llwu\llwu.c ****     * are peripheral module wakeups.  The flags contained in the LLWU_F3 
 239:C:/Users/b01252/Documents/Freescale/L4K/software/kinetis_kl46_sc/src/drivers/llwu\llwu.c ****     * register should be cleared through the associated module interrupt 
 240:C:/Users/b01252/Documents/Freescale/L4K/software/kinetis_kl46_sc/src/drivers/llwu\llwu.c ****     * and not through the LLWU_F3 per the Kinetis L Family Reference
 241:C:/Users/b01252/Documents/Freescale/L4K/software/kinetis_kl46_sc/src/drivers/llwu\llwu.c ****     * Manual (LLWU Chapter)
 242:C:/Users/b01252/Documents/Freescale/L4K/software/kinetis_kl46_sc/src/drivers/llwu\llwu.c ****     **********************************************************************/
 243:C:/Users/b01252/Documents/Freescale/L4K/software/kinetis_kl46_sc/src/drivers/llwu\llwu.c ****   if (LLWU_F3 & LLWU_F3_MWUF0_MASK) {
 1011              		.loc 1 243 0
 1012 0152 224B     		ldr	r3, .L43
 1013 0154 DB79     		ldrb	r3, [r3, #7]
 1014 0156 DBB2     		uxtb	r3, r3
 1015 0158 1A1C     		mov	r2, r3
 1016 015a 0123     		mov	r3, #1
 1017 015c 1340     		and	r3, r2
 1018 015e 10D0     		beq	.L40
 244:C:/Users/b01252/Documents/Freescale/L4K/software/kinetis_kl46_sc/src/drivers/llwu\llwu.c ****     //   printf("****WUF3_MWUF0 IF  LPTMR  *****\r\n"); 
 245:C:/Users/b01252/Documents/Freescale/L4K/software/kinetis_kl46_sc/src/drivers/llwu\llwu.c ****          SIM_SCGC5 |= SIM_SCGC5_LPTMR_MASK;
 1019              		.loc 1 245 0
 1020 0160 1F4A     		ldr	r2, .L43+4
 1021 0162 1F49     		ldr	r1, .L43+4
 1022 0164 1F4B     		ldr	r3, .L43+8
 1023 0166 CB58     		ldr	r3, [r1, r3]
 1024 0168 0121     		mov	r1, #1
 1025 016a 1943     		orr	r1, r3
 1026 016c 1D4B     		ldr	r3, .L43+8
 1027 016e D150     		str	r1, [r2, r3]
 246:C:/Users/b01252/Documents/Freescale/L4K/software/kinetis_kl46_sc/src/drivers/llwu\llwu.c ****          LPTMR0_CSR |=  LPTMR_CSR_TCF_MASK;   // write 1 to TCF to clear the LPT timer compare flag
 1028              		.loc 1 246 0
 1029 0170 1D4B     		ldr	r3, .L43+12
 1030 0172 1D4A     		ldr	r2, .L43+12
 1031 0174 1268     		ldr	r2, [r2]
 1032 0176 8021     		mov	r1, #128
 1033 0178 0A43     		orr	r2, r1
 1034 017a 1A60     		str	r2, [r3]
 247:C:/Users/b01252/Documents/Freescale/L4K/software/kinetis_kl46_sc/src/drivers/llwu\llwu.c ****          LPTMR0_CSR = ( LPTMR_CSR_TEN_MASK | LPTMR_CSR_TIE_MASK | LPTMR_CSR_TCF_MASK  );
 1035              		.loc 1 247 0
 1036 017c 1A4B     		ldr	r3, .L43+12
 1037 017e C122     		mov	r2, #193
 1038 0180 1A60     		str	r2, [r3]
 1039              	.L40:
 248:C:/Users/b01252/Documents/Freescale/L4K/software/kinetis_kl46_sc/src/drivers/llwu\llwu.c ****    }
 249:C:/Users/b01252/Documents/Freescale/L4K/software/kinetis_kl46_sc/src/drivers/llwu\llwu.c ****    if(LLWU_FILT1 & LLWU_FILT1_FILTF_MASK){
 1040              		.loc 1 249 0
 1041 0182 164B     		ldr	r3, .L43
 1042 0184 1B7A     		ldrb	r3, [r3, #8]
 1043 0186 DBB2     		uxtb	r3, r3
 1044 0188 DBB2     		uxtb	r3, r3
 1045 018a 5BB2     		sxtb	r3, r3
 1046 018c 002B     		cmp	r3, #0
 1047 018e 08DA     		bge	.L41
 250:C:/Users/b01252/Documents/Freescale/L4K/software/kinetis_kl46_sc/src/drivers/llwu\llwu.c **** 	   
 251:C:/Users/b01252/Documents/Freescale/L4K/software/kinetis_kl46_sc/src/drivers/llwu\llwu.c **** 	   LLWU_FILT1 |= LLWU_FILT1_FILTF_MASK;
 1048              		.loc 1 251 0
 1049 0190 124B     		ldr	r3, .L43
 1050 0192 124A     		ldr	r2, .L43
 1051 0194 127A     		ldrb	r2, [r2, #8]
 1052 0196 D2B2     		uxtb	r2, r2
 1053 0198 8021     		mov	r1, #128
 1054 019a 4942     		neg	r1, r1
 1055 019c 0A43     		orr	r2, r1
 1056 019e D2B2     		uxtb	r2, r2
 1057 01a0 1A72     		strb	r2, [r3, #8]
 1058              	.L41:
 252:C:/Users/b01252/Documents/Freescale/L4K/software/kinetis_kl46_sc/src/drivers/llwu\llwu.c ****    }
 253:C:/Users/b01252/Documents/Freescale/L4K/software/kinetis_kl46_sc/src/drivers/llwu\llwu.c ****    if(LLWU_FILT2 & LLWU_FILT2_FILTF_MASK){
 1059              		.loc 1 253 0
 1060 01a2 0E4B     		ldr	r3, .L43
 1061 01a4 5B7A     		ldrb	r3, [r3, #9]
 1062 01a6 DBB2     		uxtb	r3, r3
 1063 01a8 DBB2     		uxtb	r3, r3
 1064 01aa 5BB2     		sxtb	r3, r3
 1065 01ac 002B     		cmp	r3, #0
 1066 01ae 08DA     		bge	.L42
 254:C:/Users/b01252/Documents/Freescale/L4K/software/kinetis_kl46_sc/src/drivers/llwu\llwu.c **** 	   
 255:C:/Users/b01252/Documents/Freescale/L4K/software/kinetis_kl46_sc/src/drivers/llwu\llwu.c **** 	   LLWU_FILT2 |= LLWU_FILT2_FILTF_MASK;
 1067              		.loc 1 255 0
 1068 01b0 0A4B     		ldr	r3, .L43
 1069 01b2 0A4A     		ldr	r2, .L43
 1070 01b4 527A     		ldrb	r2, [r2, #9]
 1071 01b6 D2B2     		uxtb	r2, r2
 1072 01b8 8021     		mov	r1, #128
 1073 01ba 4942     		neg	r1, r1
 1074 01bc 0A43     		orr	r2, r1
 1075 01be D2B2     		uxtb	r2, r2
 1076 01c0 5A72     		strb	r2, [r3, #9]
 1077              	.L42:
 256:C:/Users/b01252/Documents/Freescale/L4K/software/kinetis_kl46_sc/src/drivers/llwu\llwu.c ****    }
 257:C:/Users/b01252/Documents/Freescale/L4K/software/kinetis_kl46_sc/src/drivers/llwu\llwu.c ****    NVIC_ICPR |= 1 << (LLWU_irq_no%32);
 1078              		.loc 1 257 0
 1079 01c2 0A4A     		ldr	r2, .L43+16
 1080 01c4 0949     		ldr	r1, .L43+16
 1081 01c6 C023     		mov	r3, #192
 1082 01c8 5B00     		lsl	r3, r3, #1
 1083 01ca CB58     		ldr	r3, [r1, r3]
 1084 01cc 8021     		mov	r1, #128
 1085 01ce 1943     		orr	r1, r3
 1086 01d0 C023     		mov	r3, #192
 1087 01d2 5B00     		lsl	r3, r3, #1
 1088 01d4 D150     		str	r1, [r2, r3]
 258:C:/Users/b01252/Documents/Freescale/L4K/software/kinetis_kl46_sc/src/drivers/llwu\llwu.c **** }
 1089              		.loc 1 258 0
 1090 01d6 BD46     		mov	sp, r7
 1091              		@ sp needed for prologue
 1092 01d8 80BD     		pop	{r7, pc}
 1093              	.L44:
 1094 01da C046     		.align	2
 1095              	.L43:
 1096 01dc 00C00740 		.word	1074249728
 1097 01e0 00700440 		.word	1074032640
 1098 01e4 38100000 		.word	4152
 1099 01e8 00000440 		.word	1074003968
 1100 01ec 00E100E0 		.word	-536813312
 1101              		.cfi_endproc
 1102              	.LFE2:
 1104              		.text
 1105              	.Letext0:
 1106              		.file 2 "C:/Users/b01252/Documents/Freescale/L4K/software/kinetis_kl46_sc/src/cpu/arm_cm0.h"
 1107              		.file 3 "C:/Freescale/CW MCU v10.4/MCU/ARM_GCC_Support/ewl/EWL_C/include/cstdint"
 1108              		.file 4 "C:/Users/b01252/Documents/Freescale/L4K/software/kinetis_kl46_sc/src/cpu/headers/MKL46Z4.