   1              		.cpu cortex-m0
   2              		.fpu softvfp
   3              		.eabi_attribute 20, 1
   4              		.eabi_attribute 21, 1
   5              		.eabi_attribute 23, 3
   6              		.eabi_attribute 24, 1
   7              		.eabi_attribute 25, 1
   8              		.eabi_attribute 26, 1
   9              		.eabi_attribute 30, 6
  10              		.eabi_attribute 34, 0
  11              		.eabi_attribute 18, 4
  12              		.code	16
  13              		.file	"mcg.c"
  14              		.text
  15              	.Ltext0:
  16              		.cfi_sections	.debug_frame
  17              		.comm	drs_val,1,1
  18              		.comm	dmx32_val,1,1
  19              		.global	__aeabi_idiv
  20              		.section	.text.pll_init,"ax",%progbits
  21              		.align	2
  22              		.global	pll_init
  23              		.code	16
  24              		.thumb_func
  26              	pll_init:
  27              	.LFB0:
  28              		.file 1 "C:/Users/b01252/Documents/Freescale/L4K/software/kinetis_kl46_sc/src/drivers/mcg/mcg.c"
   1:C:/Users/b01252/Documents/Freescale/L4K/software/kinetis_kl46_sc/src/drivers/mcg\mcg.c **** /*
   2:C:/Users/b01252/Documents/Freescale/L4K/software/kinetis_kl46_sc/src/drivers/mcg\mcg.c ****  * File:    mcg.c
   3:C:/Users/b01252/Documents/Freescale/L4K/software/kinetis_kl46_sc/src/drivers/mcg\mcg.c ****  *
   4:C:/Users/b01252/Documents/Freescale/L4K/software/kinetis_kl46_sc/src/drivers/mcg\mcg.c ****  * MCG drivers for Freescale Kinetis L - series devices
   5:C:/Users/b01252/Documents/Freescale/L4K/software/kinetis_kl46_sc/src/drivers/mcg\mcg.c ****  * Notes:
   6:C:/Users/b01252/Documents/Freescale/L4K/software/kinetis_kl46_sc/src/drivers/mcg\mcg.c ****  * Assumes the MCG mode is in the default FEI mode out of reset
   7:C:/Users/b01252/Documents/Freescale/L4K/software/kinetis_kl46_sc/src/drivers/mcg\mcg.c ****  */
   8:C:/Users/b01252/Documents/Freescale/L4K/software/kinetis_kl46_sc/src/drivers/mcg\mcg.c **** 
   9:C:/Users/b01252/Documents/Freescale/L4K/software/kinetis_kl46_sc/src/drivers/mcg\mcg.c **** #include "common.h"
  10:C:/Users/b01252/Documents/Freescale/L4K/software/kinetis_kl46_sc/src/drivers/mcg\mcg.c **** #include "mcg.h"
  11:C:/Users/b01252/Documents/Freescale/L4K/software/kinetis_kl46_sc/src/drivers/mcg\mcg.c **** 
  12:C:/Users/b01252/Documents/Freescale/L4K/software/kinetis_kl46_sc/src/drivers/mcg\mcg.c **** 
  13:C:/Users/b01252/Documents/Freescale/L4K/software/kinetis_kl46_sc/src/drivers/mcg\mcg.c **** // global variables
  14:C:/Users/b01252/Documents/Freescale/L4K/software/kinetis_kl46_sc/src/drivers/mcg\mcg.c **** extern int core_clk_khz;
  15:C:/Users/b01252/Documents/Freescale/L4K/software/kinetis_kl46_sc/src/drivers/mcg\mcg.c **** 
  16:C:/Users/b01252/Documents/Freescale/L4K/software/kinetis_kl46_sc/src/drivers/mcg\mcg.c **** 
  17:C:/Users/b01252/Documents/Freescale/L4K/software/kinetis_kl46_sc/src/drivers/mcg\mcg.c **** char drs_val, dmx32_val;
  18:C:/Users/b01252/Documents/Freescale/L4K/software/kinetis_kl46_sc/src/drivers/mcg\mcg.c **** 
  19:C:/Users/b01252/Documents/Freescale/L4K/software/kinetis_kl46_sc/src/drivers/mcg\mcg.c **** 
  20:C:/Users/b01252/Documents/Freescale/L4K/software/kinetis_kl46_sc/src/drivers/mcg\mcg.c **** 
  21:C:/Users/b01252/Documents/Freescale/L4K/software/kinetis_kl46_sc/src/drivers/mcg\mcg.c **** 
  22:C:/Users/b01252/Documents/Freescale/L4K/software/kinetis_kl46_sc/src/drivers/mcg\mcg.c **** 
  23:C:/Users/b01252/Documents/Freescale/L4K/software/kinetis_kl46_sc/src/drivers/mcg\mcg.c **** /*********************************************************************************************/
  24:C:/Users/b01252/Documents/Freescale/L4K/software/kinetis_kl46_sc/src/drivers/mcg\mcg.c **** /* Functon name : pll_init
  25:C:/Users/b01252/Documents/Freescale/L4K/software/kinetis_kl46_sc/src/drivers/mcg\mcg.c ****  *
  26:C:/Users/b01252/Documents/Freescale/L4K/software/kinetis_kl46_sc/src/drivers/mcg\mcg.c ****  * Mode transition: Option to move from FEI to PEE mode or to just initialize the PLL
  27:C:/Users/b01252/Documents/Freescale/L4K/software/kinetis_kl46_sc/src/drivers/mcg\mcg.c ****  *
  28:C:/Users/b01252/Documents/Freescale/L4K/software/kinetis_kl46_sc/src/drivers/mcg\mcg.c ****  * This function initializess PLL0. Either OSC0 is selected for the
  29:C:/Users/b01252/Documents/Freescale/L4K/software/kinetis_kl46_sc/src/drivers/mcg\mcg.c ****  * reference clock source. The oscillators can be configured to use a crystal or take in an
  30:C:/Users/b01252/Documents/Freescale/L4K/software/kinetis_kl46_sc/src/drivers/mcg\mcg.c ****  * external square wave clock.
  31:C:/Users/b01252/Documents/Freescale/L4K/software/kinetis_kl46_sc/src/drivers/mcg\mcg.c ****  * Using the function parameter names the PLL frequency is calculated as follows:
  32:C:/Users/b01252/Documents/Freescale/L4K/software/kinetis_kl46_sc/src/drivers/mcg\mcg.c ****  * PLL freq = ((crystal_val / prdiv_val) * vdiv_val)
  33:C:/Users/b01252/Documents/Freescale/L4K/software/kinetis_kl46_sc/src/drivers/mcg\mcg.c ****  * Refer to the readme file in the mcg driver directory for examples of pll_init configurations.
  34:C:/Users/b01252/Documents/Freescale/L4K/software/kinetis_kl46_sc/src/drivers/mcg\mcg.c ****  * All parameters must be provided, for example crystal_val must be provided even if the
  35:C:/Users/b01252/Documents/Freescale/L4K/software/kinetis_kl46_sc/src/drivers/mcg\mcg.c ****  * oscillator associated with that parameter is already initialized.
  36:C:/Users/b01252/Documents/Freescale/L4K/software/kinetis_kl46_sc/src/drivers/mcg\mcg.c ****  * The various passed parameters are checked to ensure they are within the allowed range. If any
  37:C:/Users/b01252/Documents/Freescale/L4K/software/kinetis_kl46_sc/src/drivers/mcg\mcg.c ****  * of these checks fail the driver will exit and return a fail/error code. An error code will
  38:C:/Users/b01252/Documents/Freescale/L4K/software/kinetis_kl46_sc/src/drivers/mcg\mcg.c ****  * also be returned if any error occurs during the PLL initialization sequence. Refer to the
  39:C:/Users/b01252/Documents/Freescale/L4K/software/kinetis_kl46_sc/src/drivers/mcg\mcg.c ****  * readme file in the mcg driver directory for a list of all these codes.
  40:C:/Users/b01252/Documents/Freescale/L4K/software/kinetis_kl46_sc/src/drivers/mcg\mcg.c ****  *
  41:C:/Users/b01252/Documents/Freescale/L4K/software/kinetis_kl46_sc/src/drivers/mcg\mcg.c ****  * Parameters: crystal_val - external clock frequency in Hz either from a crystal or square
  42:C:/Users/b01252/Documents/Freescale/L4K/software/kinetis_kl46_sc/src/drivers/mcg\mcg.c ****  *                           wave clock source
  43:C:/Users/b01252/Documents/Freescale/L4K/software/kinetis_kl46_sc/src/drivers/mcg\mcg.c ****  *             hgo_val     - selects whether low power or high gain mode is selected
  44:C:/Users/b01252/Documents/Freescale/L4K/software/kinetis_kl46_sc/src/drivers/mcg\mcg.c ****  *                           for the crystal oscillator. This has no meaning if an
  45:C:/Users/b01252/Documents/Freescale/L4K/software/kinetis_kl46_sc/src/drivers/mcg\mcg.c ****  *                           external clock is used.
  46:C:/Users/b01252/Documents/Freescale/L4K/software/kinetis_kl46_sc/src/drivers/mcg\mcg.c ****  *             erefs_val   - selects external clock (=0) or crystal osc (=1)
  47:C:/Users/b01252/Documents/Freescale/L4K/software/kinetis_kl46_sc/src/drivers/mcg\mcg.c ****  *             prdiv_val   - value to divide the external clock source by to create the desired
  48:C:/Users/b01252/Documents/Freescale/L4K/software/kinetis_kl46_sc/src/drivers/mcg\mcg.c ****  *                           PLL reference clock frequency
  49:C:/Users/b01252/Documents/Freescale/L4K/software/kinetis_kl46_sc/src/drivers/mcg\mcg.c ****  *             vdiv_val    - value to multiply the PLL reference clock frequency by
  50:C:/Users/b01252/Documents/Freescale/L4K/software/kinetis_kl46_sc/src/drivers/mcg\mcg.c ****  *             mcgout_select  - 0 if the PLL is just to be enabled, non-zero if the PLL is used
  51:C:/Users/b01252/Documents/Freescale/L4K/software/kinetis_kl46_sc/src/drivers/mcg\mcg.c ****  *                              to provide the MCGOUT clock for the system.
  52:C:/Users/b01252/Documents/Freescale/L4K/software/kinetis_kl46_sc/src/drivers/mcg\mcg.c ****  *
  53:C:/Users/b01252/Documents/Freescale/L4K/software/kinetis_kl46_sc/src/drivers/mcg\mcg.c ****  * Return value : PLL frequency (Hz) or error code
  54:C:/Users/b01252/Documents/Freescale/L4K/software/kinetis_kl46_sc/src/drivers/mcg\mcg.c ****  */
  55:C:/Users/b01252/Documents/Freescale/L4K/software/kinetis_kl46_sc/src/drivers/mcg\mcg.c **** 
  56:C:/Users/b01252/Documents/Freescale/L4K/software/kinetis_kl46_sc/src/drivers/mcg\mcg.c **** int pll_init(int crystal_val, unsigned char hgo_val, unsigned char erefs_val, signed char prdiv_val
  57:C:/Users/b01252/Documents/Freescale/L4K/software/kinetis_kl46_sc/src/drivers/mcg\mcg.c **** {
  29              		.loc 1 57 0
  30              		.cfi_startproc
  31 0000 80B5     		push	{r7, lr}
  32              	.LCFI0:
  33              		.cfi_def_cfa_offset 8
  34              		.cfi_offset 7, -8
  35              		.cfi_offset 14, -4
  36 0002 86B0     		sub	sp, sp, #24
  37              	.LCFI1:
  38              		.cfi_def_cfa_offset 32
  39 0004 00AF     		add	r7, sp, #0
  40              	.LCFI2:
  41              		.cfi_def_cfa_register 7
  42 0006 7860     		str	r0, [r7, #4]
  43 0008 081C     		mov	r0, r1
  44 000a 111C     		mov	r1, r2
  45 000c 1A1C     		mov	r2, r3
  46 000e FB1C     		add	r3, r7, #3
  47 0010 1870     		strb	r0, [r3]
  48 0012 BB1C     		add	r3, r7, #2
  49 0014 1970     		strb	r1, [r3]
  50 0016 7B1C     		add	r3, r7, #1
  51 0018 1A70     		strb	r2, [r3]
  58:C:/Users/b01252/Documents/Freescale/L4K/software/kinetis_kl46_sc/src/drivers/mcg\mcg.c ****   unsigned char frdiv_val;
  59:C:/Users/b01252/Documents/Freescale/L4K/software/kinetis_kl46_sc/src/drivers/mcg\mcg.c ****   unsigned char temp_reg;
  60:C:/Users/b01252/Documents/Freescale/L4K/software/kinetis_kl46_sc/src/drivers/mcg\mcg.c ****   unsigned char prdiv, vdiv;
  61:C:/Users/b01252/Documents/Freescale/L4K/software/kinetis_kl46_sc/src/drivers/mcg\mcg.c ****   short i;
  62:C:/Users/b01252/Documents/Freescale/L4K/software/kinetis_kl46_sc/src/drivers/mcg\mcg.c ****   int ref_freq;
  63:C:/Users/b01252/Documents/Freescale/L4K/software/kinetis_kl46_sc/src/drivers/mcg\mcg.c ****   int pll_freq;
  64:C:/Users/b01252/Documents/Freescale/L4K/software/kinetis_kl46_sc/src/drivers/mcg\mcg.c **** 
  65:C:/Users/b01252/Documents/Freescale/L4K/software/kinetis_kl46_sc/src/drivers/mcg\mcg.c ****   // check if in FEI mode
  66:C:/Users/b01252/Documents/Freescale/L4K/software/kinetis_kl46_sc/src/drivers/mcg\mcg.c ****   if (!((((MCG_S & MCG_S_CLKST_MASK) >> MCG_S_CLKST_SHIFT) == 0x0) && // check CLKS mux has selcted
  52              		.loc 1 66 0
  53 001a C24B     		ldr	r3, .L61
  54 001c 9B79     		ldrb	r3, [r3, #6]
  55 001e DBB2     		uxtb	r3, r3
  56 0020 1A1C     		mov	r2, r3
  57 0022 0C23     		mov	r3, #12
  58 0024 1340     		and	r3, r2
  59 0026 9B08     		lsr	r3, r3, #2
  60 0028 0DD1     		bne	.L2
  67:C:/Users/b01252/Documents/Freescale/L4K/software/kinetis_kl46_sc/src/drivers/mcg\mcg.c ****       (MCG_S & MCG_S_IREFST_MASK) &&                                  // check FLL ref is internal 
  61              		.loc 1 67 0
  62 002a BE4B     		ldr	r3, .L61
  63 002c 9B79     		ldrb	r3, [r3, #6]
  64 002e DBB2     		uxtb	r3, r3
  65 0030 1A1C     		mov	r2, r3
  66 0032 1023     		mov	r3, #16
  67 0034 1340     		and	r3, r2
  66:C:/Users/b01252/Documents/Freescale/L4K/software/kinetis_kl46_sc/src/drivers/mcg\mcg.c ****   if (!((((MCG_S & MCG_S_CLKST_MASK) >> MCG_S_CLKST_SHIFT) == 0x0) && // check CLKS mux has selcted
  68              		.loc 1 66 0
  69 0036 06D0     		beq	.L2
  68:C:/Users/b01252/Documents/Freescale/L4K/software/kinetis_kl46_sc/src/drivers/mcg\mcg.c ****       (!(MCG_S & MCG_S_PLLST_MASK))))                                 // check PLLS mux has selecte
  70              		.loc 1 68 0
  71 0038 BA4B     		ldr	r3, .L61
  72 003a 9B79     		ldrb	r3, [r3, #6]
  73 003c DBB2     		uxtb	r3, r3
  74 003e 1A1C     		mov	r2, r3
  75 0040 2023     		mov	r3, #32
  76 0042 1340     		and	r3, r2
  66:C:/Users/b01252/Documents/Freescale/L4K/software/kinetis_kl46_sc/src/drivers/mcg\mcg.c ****   if (!((((MCG_S & MCG_S_CLKST_MASK) >> MCG_S_CLKST_SHIFT) == 0x0) && // check CLKS mux has selcted
  77              		.loc 1 66 0
  78 0044 01D0     		beq	.L3
  79              	.L2:
  69:C:/Users/b01252/Documents/Freescale/L4K/software/kinetis_kl46_sc/src/drivers/mcg\mcg.c ****   {
  70:C:/Users/b01252/Documents/Freescale/L4K/software/kinetis_kl46_sc/src/drivers/mcg\mcg.c ****     return 0x1;                                                     // return error code
  80              		.loc 1 70 0
  81 0046 0123     		mov	r3, #1
  82 0048 73E2     		b	.L4
  83              	.L3:
  71:C:/Users/b01252/Documents/Freescale/L4K/software/kinetis_kl46_sc/src/drivers/mcg\mcg.c ****   }
  72:C:/Users/b01252/Documents/Freescale/L4K/software/kinetis_kl46_sc/src/drivers/mcg\mcg.c **** 
  73:C:/Users/b01252/Documents/Freescale/L4K/software/kinetis_kl46_sc/src/drivers/mcg\mcg.c ****   // check external frequency is less than the maximum frequency
  74:C:/Users/b01252/Documents/Freescale/L4K/software/kinetis_kl46_sc/src/drivers/mcg\mcg.c ****   if  (crystal_val > 50000000) {return 0x21;}
  84              		.loc 1 74 0
  85 004a 7A68     		ldr	r2, [r7, #4]
  86 004c B64B     		ldr	r3, .L61+4
  87 004e 9A42     		cmp	r2, r3
  88 0050 01DD     		ble	.L5
  89              		.loc 1 74 0 is_stmt 0
  90 0052 2123     		mov	r3, #33
  91 0054 6DE2     		b	.L4
  92              	.L5:
  75:C:/Users/b01252/Documents/Freescale/L4K/software/kinetis_kl46_sc/src/drivers/mcg\mcg.c **** 
  76:C:/Users/b01252/Documents/Freescale/L4K/software/kinetis_kl46_sc/src/drivers/mcg\mcg.c ****   // check crystal frequency is within spec. if crystal osc is being used as PLL ref
  77:C:/Users/b01252/Documents/Freescale/L4K/software/kinetis_kl46_sc/src/drivers/mcg\mcg.c ****   if (erefs_val)
  93              		.loc 1 77 0 is_stmt 1
  94 0056 BB1C     		add	r3, r7, #2
  95 0058 1B78     		ldrb	r3, [r3]
  96 005a 002B     		cmp	r3, #0
  97 005c 09D0     		beq	.L6
  78:C:/Users/b01252/Documents/Freescale/L4K/software/kinetis_kl46_sc/src/drivers/mcg\mcg.c ****   {
  79:C:/Users/b01252/Documents/Freescale/L4K/software/kinetis_kl46_sc/src/drivers/mcg\mcg.c ****     if ((crystal_val < 3000000) || (crystal_val > 32000000)) {return 0x22;} // return 1 if one of t
  98              		.loc 1 79 0
  99 005e 7A68     		ldr	r2, [r7, #4]
 100 0060 B24B     		ldr	r3, .L61+8
 101 0062 9A42     		cmp	r2, r3
 102 0064 03DD     		ble	.L7
 103              		.loc 1 79 0 is_stmt 0
 104 0066 7A68     		ldr	r2, [r7, #4]
 105 0068 B14B     		ldr	r3, .L61+12
 106 006a 9A42     		cmp	r2, r3
 107 006c 01DD     		ble	.L6
 108              	.L7:
 109              		.loc 1 79 0
 110 006e 2223     		mov	r3, #34
 111 0070 5FE2     		b	.L4
 112              	.L6:
  80:C:/Users/b01252/Documents/Freescale/L4K/software/kinetis_kl46_sc/src/drivers/mcg\mcg.c ****   }
  81:C:/Users/b01252/Documents/Freescale/L4K/software/kinetis_kl46_sc/src/drivers/mcg\mcg.c **** 
  82:C:/Users/b01252/Documents/Freescale/L4K/software/kinetis_kl46_sc/src/drivers/mcg\mcg.c ****   // make sure HGO will never be greater than 1. Could return an error instead if desired.
  83:C:/Users/b01252/Documents/Freescale/L4K/software/kinetis_kl46_sc/src/drivers/mcg\mcg.c ****   if (hgo_val > 0)
 113              		.loc 1 83 0 is_stmt 1
 114 0072 FB1C     		add	r3, r7, #3
 115 0074 1B78     		ldrb	r3, [r3]
 116 0076 002B     		cmp	r3, #0
 117 0078 02D0     		beq	.L8
  84:C:/Users/b01252/Documents/Freescale/L4K/software/kinetis_kl46_sc/src/drivers/mcg\mcg.c ****   {
  85:C:/Users/b01252/Documents/Freescale/L4K/software/kinetis_kl46_sc/src/drivers/mcg\mcg.c ****     hgo_val = 1; // force hgo_val to 1 if > 0
 118              		.loc 1 85 0
 119 007a FB1C     		add	r3, r7, #3
 120 007c 0122     		mov	r2, #1
 121 007e 1A70     		strb	r2, [r3]
 122              	.L8:
  86:C:/Users/b01252/Documents/Freescale/L4K/software/kinetis_kl46_sc/src/drivers/mcg\mcg.c ****   }
  87:C:/Users/b01252/Documents/Freescale/L4K/software/kinetis_kl46_sc/src/drivers/mcg\mcg.c **** 
  88:C:/Users/b01252/Documents/Freescale/L4K/software/kinetis_kl46_sc/src/drivers/mcg\mcg.c ****   // Check PLL divider settings are within spec.
  89:C:/Users/b01252/Documents/Freescale/L4K/software/kinetis_kl46_sc/src/drivers/mcg\mcg.c ****   if ((prdiv_val < 1) || (prdiv_val > 25)) {return 0x41;}
 123              		.loc 1 89 0
 124 0080 7B1C     		add	r3, r7, #1
 125 0082 1B78     		ldrb	r3, [r3]
 126 0084 5BB2     		sxtb	r3, r3
 127 0086 002B     		cmp	r3, #0
 128 0088 04DD     		ble	.L9
 129              		.loc 1 89 0 is_stmt 0
 130 008a 7B1C     		add	r3, r7, #1
 131 008c 1B78     		ldrb	r3, [r3]
 132 008e 5BB2     		sxtb	r3, r3
 133 0090 192B     		cmp	r3, #25
 134 0092 01DD     		ble	.L10
 135              	.L9:
 136              		.loc 1 89 0
 137 0094 4123     		mov	r3, #65
 138 0096 4CE2     		b	.L4
 139              	.L10:
  90:C:/Users/b01252/Documents/Freescale/L4K/software/kinetis_kl46_sc/src/drivers/mcg\mcg.c ****   if ((vdiv_val < 24) || (vdiv_val > 50)) {return 0x42;}
 140              		.loc 1 90 0 is_stmt 1
 141 0098 3B1C     		mov	r3, r7
 142 009a 2033     		add	r3, r3, #32
 143 009c 1B78     		ldrb	r3, [r3]
 144 009e 5BB2     		sxtb	r3, r3
 145 00a0 172B     		cmp	r3, #23
 146 00a2 05DD     		ble	.L11
 147              		.loc 1 90 0 is_stmt 0
 148 00a4 3B1C     		mov	r3, r7
 149 00a6 2033     		add	r3, r3, #32
 150 00a8 1B78     		ldrb	r3, [r3]
 151 00aa 5BB2     		sxtb	r3, r3
 152 00ac 322B     		cmp	r3, #50
 153 00ae 01DD     		ble	.L12
 154              	.L11:
 155              		.loc 1 90 0
 156 00b0 4223     		mov	r3, #66
 157 00b2 3EE2     		b	.L4
 158              	.L12:
  91:C:/Users/b01252/Documents/Freescale/L4K/software/kinetis_kl46_sc/src/drivers/mcg\mcg.c **** 
  92:C:/Users/b01252/Documents/Freescale/L4K/software/kinetis_kl46_sc/src/drivers/mcg\mcg.c ****   // Check PLL reference clock frequency is within spec.
  93:C:/Users/b01252/Documents/Freescale/L4K/software/kinetis_kl46_sc/src/drivers/mcg\mcg.c ****   ref_freq = crystal_val / prdiv_val;
 159              		.loc 1 93 0 is_stmt 1
 160 00b4 7B1C     		add	r3, r7, #1
 161 00b6 1B78     		ldrb	r3, [r3]
 162 00b8 5BB2     		sxtb	r3, r3
 163 00ba 7868     		ldr	r0, [r7, #4]
 164 00bc 191C     		mov	r1, r3
 165 00be FFF7FEFF 		bl	__aeabi_idiv
 166 00c2 031C     		mov	r3, r0
 167 00c4 3B61     		str	r3, [r7, #16]
  94:C:/Users/b01252/Documents/Freescale/L4K/software/kinetis_kl46_sc/src/drivers/mcg\mcg.c ****   if ((ref_freq < 2000000) || (ref_freq > 4000000)) {return 0x43;}
 168              		.loc 1 94 0
 169 00c6 3A69     		ldr	r2, [r7, #16]
 170 00c8 9A4B     		ldr	r3, .L61+16
 171 00ca 9A42     		cmp	r2, r3
 172 00cc 03DD     		ble	.L13
 173              		.loc 1 94 0 is_stmt 0
 174 00ce 3A69     		ldr	r2, [r7, #16]
 175 00d0 994B     		ldr	r3, .L61+20
 176 00d2 9A42     		cmp	r2, r3
 177 00d4 01DD     		ble	.L14
 178              	.L13:
 179              		.loc 1 94 0
 180 00d6 4323     		mov	r3, #67
 181 00d8 2BE2     		b	.L4
 182              	.L14:
  95:C:/Users/b01252/Documents/Freescale/L4K/software/kinetis_kl46_sc/src/drivers/mcg\mcg.c **** 
  96:C:/Users/b01252/Documents/Freescale/L4K/software/kinetis_kl46_sc/src/drivers/mcg\mcg.c ****   // Check PLL output frequency is within spec.
  97:C:/Users/b01252/Documents/Freescale/L4K/software/kinetis_kl46_sc/src/drivers/mcg\mcg.c ****   pll_freq = (crystal_val / prdiv_val) * vdiv_val;
 183              		.loc 1 97 0 is_stmt 1
 184 00da 7B1C     		add	r3, r7, #1
 185 00dc 1B78     		ldrb	r3, [r3]
 186 00de 5BB2     		sxtb	r3, r3
 187 00e0 7868     		ldr	r0, [r7, #4]
 188 00e2 191C     		mov	r1, r3
 189 00e4 FFF7FEFF 		bl	__aeabi_idiv
 190 00e8 031C     		mov	r3, r0
 191 00ea 3A1C     		mov	r2, r7
 192 00ec 2032     		add	r2, r2, #32
 193 00ee 1278     		ldrb	r2, [r2]
 194 00f0 52B2     		sxtb	r2, r2
 195 00f2 5343     		mul	r3, r2
 196 00f4 FB60     		str	r3, [r7, #12]
  98:C:/Users/b01252/Documents/Freescale/L4K/software/kinetis_kl46_sc/src/drivers/mcg\mcg.c ****   if ((pll_freq < 48000000) || (pll_freq > 100000000)) {return 0x45;}
 197              		.loc 1 98 0
 198 00f6 FA68     		ldr	r2, [r7, #12]
 199 00f8 904B     		ldr	r3, .L61+24
 200 00fa 9A42     		cmp	r2, r3
 201 00fc 03DD     		ble	.L15
 202              		.loc 1 98 0 is_stmt 0
 203 00fe FA68     		ldr	r2, [r7, #12]
 204 0100 8F4B     		ldr	r3, .L61+28
 205 0102 9A42     		cmp	r2, r3
 206 0104 01DD     		ble	.L16
 207              	.L15:
 208              		.loc 1 98 0
 209 0106 4523     		mov	r3, #69
 210 0108 13E2     		b	.L4
 211              	.L16:
  99:C:/Users/b01252/Documents/Freescale/L4K/software/kinetis_kl46_sc/src/drivers/mcg\mcg.c **** 
 100:C:/Users/b01252/Documents/Freescale/L4K/software/kinetis_kl46_sc/src/drivers/mcg\mcg.c ****   // configure the MCG_C2 register
 101:C:/Users/b01252/Documents/Freescale/L4K/software/kinetis_kl46_sc/src/drivers/mcg\mcg.c ****   // the RANGE value is determined by the external frequency. Since the RANGE parameter affects the
 102:C:/Users/b01252/Documents/Freescale/L4K/software/kinetis_kl46_sc/src/drivers/mcg\mcg.c ****   // it still needs to be set correctly even if the oscillator is not being used
 103:C:/Users/b01252/Documents/Freescale/L4K/software/kinetis_kl46_sc/src/drivers/mcg\mcg.c ****       
 104:C:/Users/b01252/Documents/Freescale/L4K/software/kinetis_kl46_sc/src/drivers/mcg\mcg.c ****   temp_reg = MCG_C2;
 212              		.loc 1 104 0 is_stmt 1
 213 010a 864A     		ldr	r2, .L61
 214 010c 3B1C     		mov	r3, r7
 215 010e 1633     		add	r3, r3, #22
 216 0110 5278     		ldrb	r2, [r2, #1]
 217 0112 1A70     		strb	r2, [r3]
 105:C:/Users/b01252/Documents/Freescale/L4K/software/kinetis_kl46_sc/src/drivers/mcg\mcg.c ****   temp_reg &= ~(MCG_C2_RANGE0_MASK | MCG_C2_HGO0_MASK | MCG_C2_EREFS0_MASK); // clear fields before
 218              		.loc 1 105 0
 219 0114 3B1C     		mov	r3, r7
 220 0116 1633     		add	r3, r3, #22
 221 0118 3A1C     		mov	r2, r7
 222 011a 1632     		add	r2, r2, #22
 223 011c 1278     		ldrb	r2, [r2]
 224 011e 3C21     		mov	r1, #60
 225 0120 8A43     		bic	r2, r1
 226 0122 1A70     		strb	r2, [r3]
 106:C:/Users/b01252/Documents/Freescale/L4K/software/kinetis_kl46_sc/src/drivers/mcg\mcg.c ****     
 107:C:/Users/b01252/Documents/Freescale/L4K/software/kinetis_kl46_sc/src/drivers/mcg\mcg.c ****   if (crystal_val <= 8000000)
 227              		.loc 1 107 0
 228 0124 7A68     		ldr	r2, [r7, #4]
 229 0126 874B     		ldr	r3, .L61+32
 230 0128 9A42     		cmp	r2, r3
 231 012a 14DC     		bgt	.L17
 108:C:/Users/b01252/Documents/Freescale/L4K/software/kinetis_kl46_sc/src/drivers/mcg\mcg.c ****   {
 109:C:/Users/b01252/Documents/Freescale/L4K/software/kinetis_kl46_sc/src/drivers/mcg\mcg.c ****     temp_reg |= (MCG_C2_RANGE0(1) | (hgo_val << MCG_C2_HGO0_SHIFT) | (erefs_val << MCG_C2_EREFS0_SH
 232              		.loc 1 109 0
 233 012c FB1C     		add	r3, r7, #3
 234 012e 1B78     		ldrb	r3, [r3]
 235 0130 DB00     		lsl	r3, r3, #3
 236 0132 DAB2     		uxtb	r2, r3
 237 0134 BB1C     		add	r3, r7, #2
 238 0136 1B78     		ldrb	r3, [r3]
 239 0138 9B00     		lsl	r3, r3, #2
 240 013a DBB2     		uxtb	r3, r3
 241 013c 1343     		orr	r3, r2
 242 013e DAB2     		uxtb	r2, r3
 243 0140 3B1C     		mov	r3, r7
 244 0142 1633     		add	r3, r3, #22
 245 0144 1B78     		ldrb	r3, [r3]
 246 0146 1343     		orr	r3, r2
 247 0148 DAB2     		uxtb	r2, r3
 248 014a 3B1C     		mov	r3, r7
 249 014c 1633     		add	r3, r3, #22
 250 014e 1021     		mov	r1, #16
 251 0150 0A43     		orr	r2, r1
 252 0152 1A70     		strb	r2, [r3]
 253 0154 13E0     		b	.L18
 254              	.L17:
 110:C:/Users/b01252/Documents/Freescale/L4K/software/kinetis_kl46_sc/src/drivers/mcg\mcg.c ****   }
 111:C:/Users/b01252/Documents/Freescale/L4K/software/kinetis_kl46_sc/src/drivers/mcg\mcg.c ****   else
 112:C:/Users/b01252/Documents/Freescale/L4K/software/kinetis_kl46_sc/src/drivers/mcg\mcg.c ****   {
 113:C:/Users/b01252/Documents/Freescale/L4K/software/kinetis_kl46_sc/src/drivers/mcg\mcg.c ****     temp_reg |= (MCG_C2_RANGE0(2) | (hgo_val << MCG_C2_HGO0_SHIFT) | (erefs_val << MCG_C2_EREFS0_SH
 255              		.loc 1 113 0
 256 0156 FB1C     		add	r3, r7, #3
 257 0158 1B78     		ldrb	r3, [r3]
 258 015a DB00     		lsl	r3, r3, #3
 259 015c DAB2     		uxtb	r2, r3
 260 015e BB1C     		add	r3, r7, #2
 261 0160 1B78     		ldrb	r3, [r3]
 262 0162 9B00     		lsl	r3, r3, #2
 263 0164 DBB2     		uxtb	r3, r3
 264 0166 1343     		orr	r3, r2
 265 0168 DAB2     		uxtb	r2, r3
 266 016a 3B1C     		mov	r3, r7
 267 016c 1633     		add	r3, r3, #22
 268 016e 1B78     		ldrb	r3, [r3]
 269 0170 1343     		orr	r3, r2
 270 0172 DAB2     		uxtb	r2, r3
 271 0174 3B1C     		mov	r3, r7
 272 0176 1633     		add	r3, r3, #22
 273 0178 2021     		mov	r1, #32
 274 017a 0A43     		orr	r2, r1
 275 017c 1A70     		strb	r2, [r3]
 276              	.L18:
 114:C:/Users/b01252/Documents/Freescale/L4K/software/kinetis_kl46_sc/src/drivers/mcg\mcg.c ****   }
 115:C:/Users/b01252/Documents/Freescale/L4K/software/kinetis_kl46_sc/src/drivers/mcg\mcg.c ****   MCG_C2 = temp_reg;
 277              		.loc 1 115 0
 278 017e 694B     		ldr	r3, .L61
 279 0180 3A1C     		mov	r2, r7
 280 0182 1632     		add	r2, r2, #22
 281 0184 1278     		ldrb	r2, [r2]
 282 0186 5A70     		strb	r2, [r3, #1]
 116:C:/Users/b01252/Documents/Freescale/L4K/software/kinetis_kl46_sc/src/drivers/mcg\mcg.c ****   
 117:C:/Users/b01252/Documents/Freescale/L4K/software/kinetis_kl46_sc/src/drivers/mcg\mcg.c ****   // determine FRDIV based on reference clock frequency
 118:C:/Users/b01252/Documents/Freescale/L4K/software/kinetis_kl46_sc/src/drivers/mcg\mcg.c ****   // since the external frequency has already been checked only the maximum frequency for each FRDI
 119:C:/Users/b01252/Documents/Freescale/L4K/software/kinetis_kl46_sc/src/drivers/mcg\mcg.c ****   if (crystal_val <= 1250000) {frdiv_val = 0;}
 283              		.loc 1 119 0
 284 0188 7A68     		ldr	r2, [r7, #4]
 285 018a 6F4B     		ldr	r3, .L61+36
 286 018c 9A42     		cmp	r2, r3
 287 018e 04DC     		bgt	.L19
 288              		.loc 1 119 0 is_stmt 0
 289 0190 3B1C     		mov	r3, r7
 290 0192 1733     		add	r3, r3, #23
 291 0194 0022     		mov	r2, #0
 292 0196 1A70     		strb	r2, [r3]
 293 0198 27E0     		b	.L20
 294              	.L19:
 120:C:/Users/b01252/Documents/Freescale/L4K/software/kinetis_kl46_sc/src/drivers/mcg\mcg.c ****   else if (crystal_val <= 2500000) {frdiv_val = 1;}
 295              		.loc 1 120 0 is_stmt 1
 296 019a 7A68     		ldr	r2, [r7, #4]
 297 019c 6B4B     		ldr	r3, .L61+40
 298 019e 9A42     		cmp	r2, r3
 299 01a0 04DC     		bgt	.L21
 300              		.loc 1 120 0 is_stmt 0
 301 01a2 3B1C     		mov	r3, r7
 302 01a4 1733     		add	r3, r3, #23
 303 01a6 0122     		mov	r2, #1
 304 01a8 1A70     		strb	r2, [r3]
 305 01aa 1EE0     		b	.L20
 306              	.L21:
 121:C:/Users/b01252/Documents/Freescale/L4K/software/kinetis_kl46_sc/src/drivers/mcg\mcg.c ****   else if (crystal_val <= 5000000) {frdiv_val = 2;}
 307              		.loc 1 121 0 is_stmt 1
 308 01ac 7A68     		ldr	r2, [r7, #4]
 309 01ae 684B     		ldr	r3, .L61+44
 310 01b0 9A42     		cmp	r2, r3
 311 01b2 04DC     		bgt	.L22
 312              		.loc 1 121 0 is_stmt 0
 313 01b4 3B1C     		mov	r3, r7
 314 01b6 1733     		add	r3, r3, #23
 315 01b8 0222     		mov	r2, #2
 316 01ba 1A70     		strb	r2, [r3]
 317 01bc 15E0     		b	.L20
 318              	.L22:
 122:C:/Users/b01252/Documents/Freescale/L4K/software/kinetis_kl46_sc/src/drivers/mcg\mcg.c ****   else if (crystal_val <= 10000000) {frdiv_val = 3;}
 319              		.loc 1 122 0 is_stmt 1
 320 01be 7A68     		ldr	r2, [r7, #4]
 321 01c0 644B     		ldr	r3, .L61+48
 322 01c2 9A42     		cmp	r2, r3
 323 01c4 04DC     		bgt	.L23
 324              		.loc 1 122 0 is_stmt 0
 325 01c6 3B1C     		mov	r3, r7
 326 01c8 1733     		add	r3, r3, #23
 327 01ca 0322     		mov	r2, #3
 328 01cc 1A70     		strb	r2, [r3]
 329 01ce 0CE0     		b	.L20
 330              	.L23:
 123:C:/Users/b01252/Documents/Freescale/L4K/software/kinetis_kl46_sc/src/drivers/mcg\mcg.c ****   else if (crystal_val <= 20000000) {frdiv_val = 4;}
 331              		.loc 1 123 0 is_stmt 1
 332 01d0 7A68     		ldr	r2, [r7, #4]
 333 01d2 614B     		ldr	r3, .L61+52
 334 01d4 9A42     		cmp	r2, r3
 335 01d6 04DC     		bgt	.L24
 336              		.loc 1 123 0 is_stmt 0
 337 01d8 3B1C     		mov	r3, r7
 338 01da 1733     		add	r3, r3, #23
 339 01dc 0422     		mov	r2, #4
 340 01de 1A70     		strb	r2, [r3]
 341 01e0 03E0     		b	.L20
 342              	.L24:
 124:C:/Users/b01252/Documents/Freescale/L4K/software/kinetis_kl46_sc/src/drivers/mcg\mcg.c ****   else {frdiv_val = 5;}
 343              		.loc 1 124 0 is_stmt 1
 344 01e2 3B1C     		mov	r3, r7
 345 01e4 1733     		add	r3, r3, #23
 346 01e6 0522     		mov	r2, #5
 347 01e8 1A70     		strb	r2, [r3]
 348              	.L20:
 125:C:/Users/b01252/Documents/Freescale/L4K/software/kinetis_kl46_sc/src/drivers/mcg\mcg.c **** 
 126:C:/Users/b01252/Documents/Freescale/L4K/software/kinetis_kl46_sc/src/drivers/mcg\mcg.c ****   // Select external oscillator and Reference Divider and clear IREFS to start ext osc
 127:C:/Users/b01252/Documents/Freescale/L4K/software/kinetis_kl46_sc/src/drivers/mcg\mcg.c ****   // If IRCLK is required it must be enabled outside of this driver, existing state will be maintai
 128:C:/Users/b01252/Documents/Freescale/L4K/software/kinetis_kl46_sc/src/drivers/mcg\mcg.c ****   // CLKS=2, FRDIV=frdiv_val, IREFS=0, IRCLKEN=0, IREFSTEN=0
 129:C:/Users/b01252/Documents/Freescale/L4K/software/kinetis_kl46_sc/src/drivers/mcg\mcg.c ****   temp_reg = MCG_C1;
 349              		.loc 1 129 0
 350 01ea 4E4A     		ldr	r2, .L61
 351 01ec 3B1C     		mov	r3, r7
 352 01ee 1633     		add	r3, r3, #22
 353 01f0 1278     		ldrb	r2, [r2]
 354 01f2 1A70     		strb	r2, [r3]
 130:C:/Users/b01252/Documents/Freescale/L4K/software/kinetis_kl46_sc/src/drivers/mcg\mcg.c ****   temp_reg &= ~(MCG_C1_CLKS_MASK | MCG_C1_FRDIV_MASK | MCG_C1_IREFS_MASK); // Clear values in these
 355              		.loc 1 130 0
 356 01f4 3B1C     		mov	r3, r7
 357 01f6 1633     		add	r3, r3, #22
 358 01f8 3A1C     		mov	r2, r7
 359 01fa 1632     		add	r2, r2, #22
 360 01fc 1178     		ldrb	r1, [r2]
 361 01fe 0322     		mov	r2, #3
 362 0200 0A40     		and	r2, r1
 363 0202 1A70     		strb	r2, [r3]
 131:C:/Users/b01252/Documents/Freescale/L4K/software/kinetis_kl46_sc/src/drivers/mcg\mcg.c ****   temp_reg |= (MCG_C1_CLKS(2) | MCG_C1_FRDIV(frdiv_val)); // Set the required CLKS and FRDIV values
 364              		.loc 1 131 0
 365 0204 3B1C     		mov	r3, r7
 366 0206 1733     		add	r3, r3, #23
 367 0208 1B78     		ldrb	r3, [r3]
 368 020a DB00     		lsl	r3, r3, #3
 369 020c DAB2     		uxtb	r2, r3
 370 020e 3823     		mov	r3, #56
 371 0210 1340     		and	r3, r2
 372 0212 DAB2     		uxtb	r2, r3
 373 0214 3B1C     		mov	r3, r7
 374 0216 1633     		add	r3, r3, #22
 375 0218 1B78     		ldrb	r3, [r3]
 376 021a 1343     		orr	r3, r2
 377 021c DAB2     		uxtb	r2, r3
 378 021e 3B1C     		mov	r3, r7
 379 0220 1633     		add	r3, r3, #22
 380 0222 8021     		mov	r1, #128
 381 0224 4942     		neg	r1, r1
 382 0226 0A43     		orr	r2, r1
 383 0228 1A70     		strb	r2, [r3]
 132:C:/Users/b01252/Documents/Freescale/L4K/software/kinetis_kl46_sc/src/drivers/mcg\mcg.c ****   MCG_C1 = temp_reg;
 384              		.loc 1 132 0
 385 022a 3E4B     		ldr	r3, .L61
 386 022c 3A1C     		mov	r2, r7
 387 022e 1632     		add	r2, r2, #22
 388 0230 1278     		ldrb	r2, [r2]
 389 0232 1A70     		strb	r2, [r3]
 133:C:/Users/b01252/Documents/Freescale/L4K/software/kinetis_kl46_sc/src/drivers/mcg\mcg.c **** 
 134:C:/Users/b01252/Documents/Freescale/L4K/software/kinetis_kl46_sc/src/drivers/mcg\mcg.c ****   // if the external oscillator is used need to wait for OSCINIT to set
 135:C:/Users/b01252/Documents/Freescale/L4K/software/kinetis_kl46_sc/src/drivers/mcg\mcg.c ****   if (erefs_val)
 390              		.loc 1 135 0
 391 0234 BB1C     		add	r3, r7, #2
 392 0236 1B78     		ldrb	r3, [r3]
 393 0238 002B     		cmp	r3, #0
 394 023a 24D0     		beq	.L25
 136:C:/Users/b01252/Documents/Freescale/L4K/software/kinetis_kl46_sc/src/drivers/mcg\mcg.c ****   {
 137:C:/Users/b01252/Documents/Freescale/L4K/software/kinetis_kl46_sc/src/drivers/mcg\mcg.c ****     for (i = 0 ; i < 20000 ; i++)
 395              		.loc 1 137 0
 396 023c 3B1C     		mov	r3, r7
 397 023e 1433     		add	r3, r3, #20
 398 0240 0022     		mov	r2, #0
 399 0242 1A80     		strh	r2, [r3]
 400 0244 0DE0     		b	.L26
 401              	.L29:
 138:C:/Users/b01252/Documents/Freescale/L4K/software/kinetis_kl46_sc/src/drivers/mcg\mcg.c ****     {
 139:C:/Users/b01252/Documents/Freescale/L4K/software/kinetis_kl46_sc/src/drivers/mcg\mcg.c ****       if (MCG_S & MCG_S_OSCINIT0_MASK) break; // jump out early if OSCINIT sets before loop finishe
 402              		.loc 1 139 0
 403 0246 374B     		ldr	r3, .L61
 404 0248 9B79     		ldrb	r3, [r3, #6]
 405 024a DBB2     		uxtb	r3, r3
 406 024c 1A1C     		mov	r2, r3
 407 024e 0223     		mov	r3, #2
 408 0250 1340     		and	r3, r2
 409 0252 0ED1     		bne	.L55
 410              	.L27:
 137:C:/Users/b01252/Documents/Freescale/L4K/software/kinetis_kl46_sc/src/drivers/mcg\mcg.c ****     for (i = 0 ; i < 20000 ; i++)
 411              		.loc 1 137 0
 412 0254 3B1C     		mov	r3, r7
 413 0256 1433     		add	r3, r3, #20
 414 0258 3A1C     		mov	r2, r7
 415 025a 1432     		add	r2, r2, #20
 416 025c 1288     		ldrh	r2, [r2]
 417 025e 0132     		add	r2, r2, #1
 418 0260 1A80     		strh	r2, [r3]
 419              	.L26:
 137:C:/Users/b01252/Documents/Freescale/L4K/software/kinetis_kl46_sc/src/drivers/mcg\mcg.c ****     for (i = 0 ; i < 20000 ; i++)
 420              		.loc 1 137 0 is_stmt 0
 421 0262 3B1C     		mov	r3, r7
 422 0264 1433     		add	r3, r3, #20
 423 0266 0021     		mov	r1, #0
 424 0268 5A5E     		ldrsh	r2, [r3, r1]
 425 026a 3C4B     		ldr	r3, .L61+56
 426 026c 9A42     		cmp	r2, r3
 427 026e EADD     		ble	.L29
 428 0270 00E0     		b	.L28
 429              	.L55:
 430              		.loc 1 139 0 is_stmt 1
 431 0272 C046     		mov	r8, r8
 432              	.L28:
 140:C:/Users/b01252/Documents/Freescale/L4K/software/kinetis_kl46_sc/src/drivers/mcg\mcg.c ****     }
 141:C:/Users/b01252/Documents/Freescale/L4K/software/kinetis_kl46_sc/src/drivers/mcg\mcg.c ****   if (!(MCG_S & MCG_S_OSCINIT0_MASK)) return 0x23; // check bit is really set and return with error
 433              		.loc 1 141 0
 434 0274 2B4B     		ldr	r3, .L61
 435 0276 9B79     		ldrb	r3, [r3, #6]
 436 0278 DBB2     		uxtb	r3, r3
 437 027a 1A1C     		mov	r2, r3
 438 027c 0223     		mov	r3, #2
 439 027e 1340     		and	r3, r2
 440 0280 01D1     		bne	.L25
 441              		.loc 1 141 0 is_stmt 0
 442 0282 2323     		mov	r3, #35
 443 0284 55E1     		b	.L4
 444              	.L25:
 142:C:/Users/b01252/Documents/Freescale/L4K/software/kinetis_kl46_sc/src/drivers/mcg\mcg.c ****   }
 143:C:/Users/b01252/Documents/Freescale/L4K/software/kinetis_kl46_sc/src/drivers/mcg\mcg.c **** 
 144:C:/Users/b01252/Documents/Freescale/L4K/software/kinetis_kl46_sc/src/drivers/mcg\mcg.c ****   // wait for Reference clock Status bit to clear
 145:C:/Users/b01252/Documents/Freescale/L4K/software/kinetis_kl46_sc/src/drivers/mcg\mcg.c ****   for (i = 0 ; i < 2000 ; i++)
 445              		.loc 1 145 0 is_stmt 1
 446 0286 3B1C     		mov	r3, r7
 447 0288 1433     		add	r3, r3, #20
 448 028a 0022     		mov	r2, #0
 449 028c 1A80     		strh	r2, [r3]
 450 028e 0DE0     		b	.L30
 451              	.L33:
 146:C:/Users/b01252/Documents/Freescale/L4K/software/kinetis_kl46_sc/src/drivers/mcg\mcg.c ****   {
 147:C:/Users/b01252/Documents/Freescale/L4K/software/kinetis_kl46_sc/src/drivers/mcg\mcg.c ****     if (!(MCG_S & MCG_S_IREFST_MASK)) break; // jump out early if IREFST clears before loop finishe
 452              		.loc 1 147 0
 453 0290 244B     		ldr	r3, .L61
 454 0292 9B79     		ldrb	r3, [r3, #6]
 455 0294 DBB2     		uxtb	r3, r3
 456 0296 1A1C     		mov	r2, r3
 457 0298 1023     		mov	r3, #16
 458 029a 1340     		and	r3, r2
 459 029c 0ED0     		beq	.L56
 460              	.L31:
 145:C:/Users/b01252/Documents/Freescale/L4K/software/kinetis_kl46_sc/src/drivers/mcg\mcg.c ****   for (i = 0 ; i < 2000 ; i++)
 461              		.loc 1 145 0
 462 029e 3B1C     		mov	r3, r7
 463 02a0 1433     		add	r3, r3, #20
 464 02a2 3A1C     		mov	r2, r7
 465 02a4 1432     		add	r2, r2, #20
 466 02a6 1288     		ldrh	r2, [r2]
 467 02a8 0132     		add	r2, r2, #1
 468 02aa 1A80     		strh	r2, [r3]
 469              	.L30:
 145:C:/Users/b01252/Documents/Freescale/L4K/software/kinetis_kl46_sc/src/drivers/mcg\mcg.c ****   for (i = 0 ; i < 2000 ; i++)
 470              		.loc 1 145 0 is_stmt 0
 471 02ac 3B1C     		mov	r3, r7
 472 02ae 1433     		add	r3, r3, #20
 473 02b0 0021     		mov	r1, #0
 474 02b2 5A5E     		ldrsh	r2, [r3, r1]
 475 02b4 2A4B     		ldr	r3, .L61+60
 476 02b6 9A42     		cmp	r2, r3
 477 02b8 EADD     		ble	.L33
 478 02ba 00E0     		b	.L32
 479              	.L56:
 480              		.loc 1 147 0 is_stmt 1
 481 02bc C046     		mov	r8, r8
 482              	.L32:
 148:C:/Users/b01252/Documents/Freescale/L4K/software/kinetis_kl46_sc/src/drivers/mcg\mcg.c ****   }
 149:C:/Users/b01252/Documents/Freescale/L4K/software/kinetis_kl46_sc/src/drivers/mcg\mcg.c ****   if (MCG_S & MCG_S_IREFST_MASK) return 0x11; // check bit is really clear and return with error if
 483              		.loc 1 149 0
 484 02be 194B     		ldr	r3, .L61
 485 02c0 9B79     		ldrb	r3, [r3, #6]
 486 02c2 DBB2     		uxtb	r3, r3
 487 02c4 1A1C     		mov	r2, r3
 488 02c6 1023     		mov	r3, #16
 489 02c8 1340     		and	r3, r2
 490 02ca 01D0     		beq	.L34
 491              		.loc 1 149 0 is_stmt 0
 492 02cc 1123     		mov	r3, #17
 493 02ce 30E1     		b	.L4
 494              	.L34:
 150:C:/Users/b01252/Documents/Freescale/L4K/software/kinetis_kl46_sc/src/drivers/mcg\mcg.c **** 
 151:C:/Users/b01252/Documents/Freescale/L4K/software/kinetis_kl46_sc/src/drivers/mcg\mcg.c ****   // Wait for clock status bits to show clock source is ext ref clk
 152:C:/Users/b01252/Documents/Freescale/L4K/software/kinetis_kl46_sc/src/drivers/mcg\mcg.c ****   for (i = 0 ; i < 2000 ; i++)
 495              		.loc 1 152 0 is_stmt 1
 496 02d0 3B1C     		mov	r3, r7
 497 02d2 1433     		add	r3, r3, #20
 498 02d4 0022     		mov	r2, #0
 499 02d6 1A80     		strh	r2, [r3]
 500 02d8 0FE0     		b	.L35
 501              	.L38:
 153:C:/Users/b01252/Documents/Freescale/L4K/software/kinetis_kl46_sc/src/drivers/mcg\mcg.c ****   {
 154:C:/Users/b01252/Documents/Freescale/L4K/software/kinetis_kl46_sc/src/drivers/mcg\mcg.c ****     if (((MCG_S & MCG_S_CLKST_MASK) >> MCG_S_CLKST_SHIFT) == 0x2) break; // jump out early if CLKST
 502              		.loc 1 154 0
 503 02da 124B     		ldr	r3, .L61
 504 02dc 9B79     		ldrb	r3, [r3, #6]
 505 02de DBB2     		uxtb	r3, r3
 506 02e0 1A1C     		mov	r2, r3
 507 02e2 0C23     		mov	r3, #12
 508 02e4 1340     		and	r3, r2
 509 02e6 9B08     		lsr	r3, r3, #2
 510 02e8 022B     		cmp	r3, #2
 511 02ea 0ED0     		beq	.L57
 512              	.L36:
 152:C:/Users/b01252/Documents/Freescale/L4K/software/kinetis_kl46_sc/src/drivers/mcg\mcg.c ****   for (i = 0 ; i < 2000 ; i++)
 513              		.loc 1 152 0
 514 02ec 3B1C     		mov	r3, r7
 515 02ee 1433     		add	r3, r3, #20
 516 02f0 3A1C     		mov	r2, r7
 517 02f2 1432     		add	r2, r2, #20
 518 02f4 1288     		ldrh	r2, [r2]
 519 02f6 0132     		add	r2, r2, #1
 520 02f8 1A80     		strh	r2, [r3]
 521              	.L35:
 152:C:/Users/b01252/Documents/Freescale/L4K/software/kinetis_kl46_sc/src/drivers/mcg\mcg.c ****   for (i = 0 ; i < 2000 ; i++)
 522              		.loc 1 152 0 is_stmt 0
 523 02fa 3B1C     		mov	r3, r7
 524 02fc 1433     		add	r3, r3, #20
 525 02fe 0021     		mov	r1, #0
 526 0300 5A5E     		ldrsh	r2, [r3, r1]
 527 0302 174B     		ldr	r3, .L61+60
 528 0304 9A42     		cmp	r2, r3
 529 0306 E8DD     		ble	.L38
 530 0308 00E0     		b	.L37
 531              	.L57:
 532              		.loc 1 154 0 is_stmt 1
 533 030a C046     		mov	r8, r8
 534              	.L37:
 155:C:/Users/b01252/Documents/Freescale/L4K/software/kinetis_kl46_sc/src/drivers/mcg\mcg.c ****   }
 156:C:/Users/b01252/Documents/Freescale/L4K/software/kinetis_kl46_sc/src/drivers/mcg\mcg.c ****   if (((MCG_S & MCG_S_CLKST_MASK) >> MCG_S_CLKST_SHIFT) != 0x2) return 0x1A; // check EXT CLK is re
 535              		.loc 1 156 0
 536 030c 054B     		ldr	r3, .L61
 537 030e 9B79     		ldrb	r3, [r3, #6]
 538 0310 DBB2     		uxtb	r3, r3
 539 0312 1A1C     		mov	r2, r3
 540 0314 0C23     		mov	r3, #12
 541 0316 1340     		and	r3, r2
 542 0318 9B08     		lsr	r3, r3, #2
 543 031a 022B     		cmp	r3, #2
 544 031c 22D0     		beq	.L39
 545              		.loc 1 156 0 is_stmt 0
 546 031e 1A23     		mov	r3, #26
 547 0320 07E1     		b	.L4
 548              	.L62:
 549 0322 C046     		.align	2
 550              	.L61:
 551 0324 00400640 		.word	1074151424
 552 0328 80F0FA02 		.word	50000000
 553 032c BFC62D00 		.word	2999999
 554 0330 0048E801 		.word	32000000
 555 0334 7F841E00 		.word	1999999
 556 0338 00093D00 		.word	4000000
 557 033c FF6BDC02 		.word	47999999
 558 0340 00E1F505 		.word	100000000
 559 0344 00127A00 		.word	8000000
 560 0348 D0121300 		.word	1250000
 561 034c A0252600 		.word	2500000
 562 0350 404B4C00 		.word	5000000
 563 0354 80969800 		.word	10000000
 564 0358 002D3101 		.word	20000000
 565 035c 1F4E0000 		.word	19999
 566 0360 CF070000 		.word	1999
 567              	.L39:
 157:C:/Users/b01252/Documents/Freescale/L4K/software/kinetis_kl46_sc/src/drivers/mcg\mcg.c **** 
 158:C:/Users/b01252/Documents/Freescale/L4K/software/kinetis_kl46_sc/src/drivers/mcg\mcg.c ****   // Now in FBE
 159:C:/Users/b01252/Documents/Freescale/L4K/software/kinetis_kl46_sc/src/drivers/mcg\mcg.c ****   // It is recommended that the clock monitor is enabled when using an external clock as the clock 
 160:C:/Users/b01252/Documents/Freescale/L4K/software/kinetis_kl46_sc/src/drivers/mcg\mcg.c ****   // It is enabled here but can be removed if this is not required.
 161:C:/Users/b01252/Documents/Freescale/L4K/software/kinetis_kl46_sc/src/drivers/mcg\mcg.c ****   MCG_C6 |= MCG_C6_CME0_MASK;
 568              		.loc 1 161 0 is_stmt 1
 569 0364 754B     		ldr	r3, .L63
 570 0366 754A     		ldr	r2, .L63
 571 0368 5279     		ldrb	r2, [r2, #5]
 572 036a D2B2     		uxtb	r2, r2
 573 036c 2021     		mov	r1, #32
 574 036e 0A43     		orr	r2, r1
 575 0370 D2B2     		uxtb	r2, r2
 576 0372 5A71     		strb	r2, [r3, #5]
 162:C:/Users/b01252/Documents/Freescale/L4K/software/kinetis_kl46_sc/src/drivers/mcg\mcg.c ****   
 163:C:/Users/b01252/Documents/Freescale/L4K/software/kinetis_kl46_sc/src/drivers/mcg\mcg.c ****   // Configure PLL
 164:C:/Users/b01252/Documents/Freescale/L4K/software/kinetis_kl46_sc/src/drivers/mcg\mcg.c ****   // Configure MCG_C5
 165:C:/Users/b01252/Documents/Freescale/L4K/software/kinetis_kl46_sc/src/drivers/mcg\mcg.c ****   // If the PLL is to run in STOP mode then the PLLSTEN bit needs to be OR'ed in here or in user co
 166:C:/Users/b01252/Documents/Freescale/L4K/software/kinetis_kl46_sc/src/drivers/mcg\mcg.c ****   temp_reg = MCG_C5;
 577              		.loc 1 166 0
 578 0374 714A     		ldr	r2, .L63
 579 0376 3B1C     		mov	r3, r7
 580 0378 1633     		add	r3, r3, #22
 581 037a 1279     		ldrb	r2, [r2, #4]
 582 037c 1A70     		strb	r2, [r3]
 167:C:/Users/b01252/Documents/Freescale/L4K/software/kinetis_kl46_sc/src/drivers/mcg\mcg.c ****   temp_reg &= ~MCG_C5_PRDIV0_MASK;
 583              		.loc 1 167 0
 584 037e 3B1C     		mov	r3, r7
 585 0380 1633     		add	r3, r3, #22
 586 0382 3A1C     		mov	r2, r7
 587 0384 1632     		add	r2, r2, #22
 588 0386 1278     		ldrb	r2, [r2]
 589 0388 1F21     		mov	r1, #31
 590 038a 8A43     		bic	r2, r1
 591 038c 1A70     		strb	r2, [r3]
 168:C:/Users/b01252/Documents/Freescale/L4K/software/kinetis_kl46_sc/src/drivers/mcg\mcg.c ****   temp_reg |= MCG_C5_PRDIV0(prdiv_val - 1);    //set PLL ref divider
 592              		.loc 1 168 0
 593 038e 7B1C     		add	r3, r7, #1
 594 0390 1B78     		ldrb	r3, [r3]
 595 0392 013B     		sub	r3, r3, #1
 596 0394 DAB2     		uxtb	r2, r3
 597 0396 1F23     		mov	r3, #31
 598 0398 1340     		and	r3, r2
 599 039a D9B2     		uxtb	r1, r3
 600 039c 3B1C     		mov	r3, r7
 601 039e 1633     		add	r3, r3, #22
 602 03a0 3A1C     		mov	r2, r7
 603 03a2 1632     		add	r2, r2, #22
 604 03a4 1278     		ldrb	r2, [r2]
 605 03a6 0A43     		orr	r2, r1
 606 03a8 1A70     		strb	r2, [r3]
 169:C:/Users/b01252/Documents/Freescale/L4K/software/kinetis_kl46_sc/src/drivers/mcg\mcg.c ****   MCG_C5 = temp_reg;
 607              		.loc 1 169 0
 608 03aa 644B     		ldr	r3, .L63
 609 03ac 3A1C     		mov	r2, r7
 610 03ae 1632     		add	r2, r2, #22
 611 03b0 1278     		ldrb	r2, [r2]
 612 03b2 1A71     		strb	r2, [r3, #4]
 170:C:/Users/b01252/Documents/Freescale/L4K/software/kinetis_kl46_sc/src/drivers/mcg\mcg.c **** 
 171:C:/Users/b01252/Documents/Freescale/L4K/software/kinetis_kl46_sc/src/drivers/mcg\mcg.c ****   // Configure MCG_C6
 172:C:/Users/b01252/Documents/Freescale/L4K/software/kinetis_kl46_sc/src/drivers/mcg\mcg.c ****   // The PLLS bit is set to enable the PLL, MCGOUT still sourced from ext ref clk
 173:C:/Users/b01252/Documents/Freescale/L4K/software/kinetis_kl46_sc/src/drivers/mcg\mcg.c ****   // The loss of lock interrupt can be enabled by seperately OR'ing in the LOLIE bit in MCG_C6
 174:C:/Users/b01252/Documents/Freescale/L4K/software/kinetis_kl46_sc/src/drivers/mcg\mcg.c ****   temp_reg = MCG_C6; // store present C6 value
 613              		.loc 1 174 0
 614 03b4 614A     		ldr	r2, .L63
 615 03b6 3B1C     		mov	r3, r7
 616 03b8 1633     		add	r3, r3, #22
 617 03ba 5279     		ldrb	r2, [r2, #5]
 618 03bc 1A70     		strb	r2, [r3]
 175:C:/Users/b01252/Documents/Freescale/L4K/software/kinetis_kl46_sc/src/drivers/mcg\mcg.c ****   temp_reg &= ~MCG_C6_VDIV0_MASK; // clear VDIV settings
 619              		.loc 1 175 0
 620 03be 3B1C     		mov	r3, r7
 621 03c0 1633     		add	r3, r3, #22
 622 03c2 3A1C     		mov	r2, r7
 623 03c4 1632     		add	r2, r2, #22
 624 03c6 1278     		ldrb	r2, [r2]
 625 03c8 1F21     		mov	r1, #31
 626 03ca 8A43     		bic	r2, r1
 627 03cc 1A70     		strb	r2, [r3]
 176:C:/Users/b01252/Documents/Freescale/L4K/software/kinetis_kl46_sc/src/drivers/mcg\mcg.c ****   temp_reg |= MCG_C6_PLLS_MASK | MCG_C6_VDIV0(vdiv_val - 24); // write new VDIV and enable PLL
 628              		.loc 1 176 0
 629 03ce 3B1C     		mov	r3, r7
 630 03d0 2033     		add	r3, r3, #32
 631 03d2 1B78     		ldrb	r3, [r3]
 632 03d4 183B     		sub	r3, r3, #24
 633 03d6 DAB2     		uxtb	r2, r3
 634 03d8 1F23     		mov	r3, #31
 635 03da 1340     		and	r3, r2
 636 03dc DAB2     		uxtb	r2, r3
 637 03de 3B1C     		mov	r3, r7
 638 03e0 1633     		add	r3, r3, #22
 639 03e2 1B78     		ldrb	r3, [r3]
 640 03e4 1343     		orr	r3, r2
 641 03e6 DAB2     		uxtb	r2, r3
 642 03e8 3B1C     		mov	r3, r7
 643 03ea 1633     		add	r3, r3, #22
 644 03ec 4021     		mov	r1, #64
 645 03ee 0A43     		orr	r2, r1
 646 03f0 1A70     		strb	r2, [r3]
 177:C:/Users/b01252/Documents/Freescale/L4K/software/kinetis_kl46_sc/src/drivers/mcg\mcg.c ****   MCG_C6 = temp_reg; // update MCG_C6
 647              		.loc 1 177 0
 648 03f2 524B     		ldr	r3, .L63
 649 03f4 3A1C     		mov	r2, r7
 650 03f6 1632     		add	r2, r2, #22
 651 03f8 1278     		ldrb	r2, [r2]
 652 03fa 5A71     		strb	r2, [r3, #5]
 178:C:/Users/b01252/Documents/Freescale/L4K/software/kinetis_kl46_sc/src/drivers/mcg\mcg.c **** 
 179:C:/Users/b01252/Documents/Freescale/L4K/software/kinetis_kl46_sc/src/drivers/mcg\mcg.c ****   // wait for PLLST status bit to set
 180:C:/Users/b01252/Documents/Freescale/L4K/software/kinetis_kl46_sc/src/drivers/mcg\mcg.c ****   for (i = 0 ; i < 2000 ; i++)
 653              		.loc 1 180 0
 654 03fc 3B1C     		mov	r3, r7
 655 03fe 1433     		add	r3, r3, #20
 656 0400 0022     		mov	r2, #0
 657 0402 1A80     		strh	r2, [r3]
 658 0404 0DE0     		b	.L40
 659              	.L43:
 181:C:/Users/b01252/Documents/Freescale/L4K/software/kinetis_kl46_sc/src/drivers/mcg\mcg.c ****   {
 182:C:/Users/b01252/Documents/Freescale/L4K/software/kinetis_kl46_sc/src/drivers/mcg\mcg.c ****     if (MCG_S & MCG_S_PLLST_MASK) break; // jump out early if PLLST sets before loop finishes
 660              		.loc 1 182 0
 661 0406 4D4B     		ldr	r3, .L63
 662 0408 9B79     		ldrb	r3, [r3, #6]
 663 040a DBB2     		uxtb	r3, r3
 664 040c 1A1C     		mov	r2, r3
 665 040e 2023     		mov	r3, #32
 666 0410 1340     		and	r3, r2
 667 0412 0ED1     		bne	.L58
 668              	.L41:
 180:C:/Users/b01252/Documents/Freescale/L4K/software/kinetis_kl46_sc/src/drivers/mcg\mcg.c ****   for (i = 0 ; i < 2000 ; i++)
 669              		.loc 1 180 0
 670 0414 3B1C     		mov	r3, r7
 671 0416 1433     		add	r3, r3, #20
 672 0418 3A1C     		mov	r2, r7
 673 041a 1432     		add	r2, r2, #20
 674 041c 1288     		ldrh	r2, [r2]
 675 041e 0132     		add	r2, r2, #1
 676 0420 1A80     		strh	r2, [r3]
 677              	.L40:
 180:C:/Users/b01252/Documents/Freescale/L4K/software/kinetis_kl46_sc/src/drivers/mcg\mcg.c ****   for (i = 0 ; i < 2000 ; i++)
 678              		.loc 1 180 0 is_stmt 0
 679 0422 3B1C     		mov	r3, r7
 680 0424 1433     		add	r3, r3, #20
 681 0426 0021     		mov	r1, #0
 682 0428 5A5E     		ldrsh	r2, [r3, r1]
 683 042a 454B     		ldr	r3, .L63+4
 684 042c 9A42     		cmp	r2, r3
 685 042e EADD     		ble	.L43
 686 0430 00E0     		b	.L42
 687              	.L58:
 688              		.loc 1 182 0 is_stmt 1
 689 0432 C046     		mov	r8, r8
 690              	.L42:
 183:C:/Users/b01252/Documents/Freescale/L4K/software/kinetis_kl46_sc/src/drivers/mcg\mcg.c ****   }
 184:C:/Users/b01252/Documents/Freescale/L4K/software/kinetis_kl46_sc/src/drivers/mcg\mcg.c ****   if (!(MCG_S & MCG_S_PLLST_MASK)) return 0x16; // check bit is really set and return with error if
 691              		.loc 1 184 0
 692 0434 414B     		ldr	r3, .L63
 693 0436 9B79     		ldrb	r3, [r3, #6]
 694 0438 DBB2     		uxtb	r3, r3
 695 043a 1A1C     		mov	r2, r3
 696 043c 2023     		mov	r3, #32
 697 043e 1340     		and	r3, r2
 698 0440 01D1     		bne	.L44
 699              		.loc 1 184 0 is_stmt 0
 700 0442 1623     		mov	r3, #22
 701 0444 75E0     		b	.L4
 702              	.L44:
 185:C:/Users/b01252/Documents/Freescale/L4K/software/kinetis_kl46_sc/src/drivers/mcg\mcg.c **** 
 186:C:/Users/b01252/Documents/Freescale/L4K/software/kinetis_kl46_sc/src/drivers/mcg\mcg.c ****   // Wait for LOCK bit to set
 187:C:/Users/b01252/Documents/Freescale/L4K/software/kinetis_kl46_sc/src/drivers/mcg\mcg.c ****   for (i = 0 ; i < 4000 ; i++)
 703              		.loc 1 187 0 is_stmt 1
 704 0446 3B1C     		mov	r3, r7
 705 0448 1433     		add	r3, r3, #20
 706 044a 0022     		mov	r2, #0
 707 044c 1A80     		strh	r2, [r3]
 708 044e 0DE0     		b	.L45
 709              	.L48:
 188:C:/Users/b01252/Documents/Freescale/L4K/software/kinetis_kl46_sc/src/drivers/mcg\mcg.c ****   {
 189:C:/Users/b01252/Documents/Freescale/L4K/software/kinetis_kl46_sc/src/drivers/mcg\mcg.c ****     if (MCG_S & MCG_S_LOCK0_MASK) break; // jump out early if LOCK sets before loop finishes
 710              		.loc 1 189 0
 711 0450 3A4B     		ldr	r3, .L63
 712 0452 9B79     		ldrb	r3, [r3, #6]
 713 0454 DBB2     		uxtb	r3, r3
 714 0456 1A1C     		mov	r2, r3
 715 0458 4023     		mov	r3, #64
 716 045a 1340     		and	r3, r2
 717 045c 0ED1     		bne	.L59
 718              	.L46:
 187:C:/Users/b01252/Documents/Freescale/L4K/software/kinetis_kl46_sc/src/drivers/mcg\mcg.c ****   for (i = 0 ; i < 4000 ; i++)
 719              		.loc 1 187 0
 720 045e 3B1C     		mov	r3, r7
 721 0460 1433     		add	r3, r3, #20
 722 0462 3A1C     		mov	r2, r7
 723 0464 1432     		add	r2, r2, #20
 724 0466 1288     		ldrh	r2, [r2]
 725 0468 0132     		add	r2, r2, #1
 726 046a 1A80     		strh	r2, [r3]
 727              	.L45:
 187:C:/Users/b01252/Documents/Freescale/L4K/software/kinetis_kl46_sc/src/drivers/mcg\mcg.c ****   for (i = 0 ; i < 4000 ; i++)
 728              		.loc 1 187 0 is_stmt 0
 729 046c 3B1C     		mov	r3, r7
 730 046e 1433     		add	r3, r3, #20
 731 0470 0021     		mov	r1, #0
 732 0472 5A5E     		ldrsh	r2, [r3, r1]
 733 0474 334B     		ldr	r3, .L63+8
 734 0476 9A42     		cmp	r2, r3
 735 0478 EADD     		ble	.L48
 736 047a 00E0     		b	.L47
 737              	.L59:
 738              		.loc 1 189 0 is_stmt 1
 739 047c C046     		mov	r8, r8
 740              	.L47:
 190:C:/Users/b01252/Documents/Freescale/L4K/software/kinetis_kl46_sc/src/drivers/mcg\mcg.c ****   }
 191:C:/Users/b01252/Documents/Freescale/L4K/software/kinetis_kl46_sc/src/drivers/mcg\mcg.c ****   if (!(MCG_S & MCG_S_LOCK0_MASK)) return 0x44; // check bit is really set and return with error if
 741              		.loc 1 191 0
 742 047e 2F4B     		ldr	r3, .L63
 743 0480 9B79     		ldrb	r3, [r3, #6]
 744 0482 DBB2     		uxtb	r3, r3
 745 0484 1A1C     		mov	r2, r3
 746 0486 4023     		mov	r3, #64
 747 0488 1340     		and	r3, r2
 748 048a 01D1     		bne	.L49
 749              		.loc 1 191 0 is_stmt 0
 750 048c 4423     		mov	r3, #68
 751 048e 50E0     		b	.L4
 752              	.L49:
 192:C:/Users/b01252/Documents/Freescale/L4K/software/kinetis_kl46_sc/src/drivers/mcg\mcg.c **** 
 193:C:/Users/b01252/Documents/Freescale/L4K/software/kinetis_kl46_sc/src/drivers/mcg\mcg.c ****   // Use actual PLL settings to calculate PLL frequency
 194:C:/Users/b01252/Documents/Freescale/L4K/software/kinetis_kl46_sc/src/drivers/mcg\mcg.c ****   prdiv = ((MCG_C5 & MCG_C5_PRDIV0_MASK) + 1);
 753              		.loc 1 194 0 is_stmt 1
 754 0490 2A4B     		ldr	r3, .L63
 755 0492 1B79     		ldrb	r3, [r3, #4]
 756 0494 DAB2     		uxtb	r2, r3
 757 0496 1F23     		mov	r3, #31
 758 0498 1340     		and	r3, r2
 759 049a DAB2     		uxtb	r2, r3
 760 049c 3B1C     		mov	r3, r7
 761 049e 0B33     		add	r3, r3, #11
 762 04a0 0132     		add	r2, r2, #1
 763 04a2 1A70     		strb	r2, [r3]
 195:C:/Users/b01252/Documents/Freescale/L4K/software/kinetis_kl46_sc/src/drivers/mcg\mcg.c ****   vdiv = ((MCG_C6 & MCG_C6_VDIV0_MASK) + 24);
 764              		.loc 1 195 0
 765 04a4 254B     		ldr	r3, .L63
 766 04a6 5B79     		ldrb	r3, [r3, #5]
 767 04a8 DAB2     		uxtb	r2, r3
 768 04aa 1F23     		mov	r3, #31
 769 04ac 1340     		and	r3, r2
 770 04ae DAB2     		uxtb	r2, r3
 771 04b0 3B1C     		mov	r3, r7
 772 04b2 0A33     		add	r3, r3, #10
 773 04b4 1832     		add	r2, r2, #24
 774 04b6 1A70     		strb	r2, [r3]
 196:C:/Users/b01252/Documents/Freescale/L4K/software/kinetis_kl46_sc/src/drivers/mcg\mcg.c **** 
 197:C:/Users/b01252/Documents/Freescale/L4K/software/kinetis_kl46_sc/src/drivers/mcg\mcg.c ****   // now in PBE
 198:C:/Users/b01252/Documents/Freescale/L4K/software/kinetis_kl46_sc/src/drivers/mcg\mcg.c **** 
 199:C:/Users/b01252/Documents/Freescale/L4K/software/kinetis_kl46_sc/src/drivers/mcg\mcg.c ****   MCG_C1 &= ~MCG_C1_CLKS_MASK; // clear CLKS to switch CLKS mux to select PLL as MCG_OUT
 775              		.loc 1 199 0
 776 04b8 204B     		ldr	r3, .L63
 777 04ba 204A     		ldr	r2, .L63
 778 04bc 1278     		ldrb	r2, [r2]
 779 04be D1B2     		uxtb	r1, r2
 780 04c0 3F22     		mov	r2, #63
 781 04c2 0A40     		and	r2, r1
 782 04c4 D2B2     		uxtb	r2, r2
 783 04c6 1A70     		strb	r2, [r3]
 200:C:/Users/b01252/Documents/Freescale/L4K/software/kinetis_kl46_sc/src/drivers/mcg\mcg.c **** 
 201:C:/Users/b01252/Documents/Freescale/L4K/software/kinetis_kl46_sc/src/drivers/mcg\mcg.c ****   // Wait for clock status bits to update
 202:C:/Users/b01252/Documents/Freescale/L4K/software/kinetis_kl46_sc/src/drivers/mcg\mcg.c ****   for (i = 0 ; i < 2000 ; i++)
 784              		.loc 1 202 0
 785 04c8 3B1C     		mov	r3, r7
 786 04ca 1433     		add	r3, r3, #20
 787 04cc 0022     		mov	r2, #0
 788 04ce 1A80     		strh	r2, [r3]
 789 04d0 0FE0     		b	.L50
 790              	.L53:
 203:C:/Users/b01252/Documents/Freescale/L4K/software/kinetis_kl46_sc/src/drivers/mcg\mcg.c ****   {
 204:C:/Users/b01252/Documents/Freescale/L4K/software/kinetis_kl46_sc/src/drivers/mcg\mcg.c ****     if (((MCG_S & MCG_S_CLKST_MASK) >> MCG_S_CLKST_SHIFT) == 0x3) break; // jump out early if CLKST
 791              		.loc 1 204 0
 792 04d2 1A4B     		ldr	r3, .L63
 793 04d4 9B79     		ldrb	r3, [r3, #6]
 794 04d6 DBB2     		uxtb	r3, r3
 795 04d8 1A1C     		mov	r2, r3
 796 04da 0C23     		mov	r3, #12
 797 04dc 1340     		and	r3, r2
 798 04de 9B08     		lsr	r3, r3, #2
 799 04e0 032B     		cmp	r3, #3
 800 04e2 0ED0     		beq	.L60
 801              	.L51:
 202:C:/Users/b01252/Documents/Freescale/L4K/software/kinetis_kl46_sc/src/drivers/mcg\mcg.c ****   for (i = 0 ; i < 2000 ; i++)
 802              		.loc 1 202 0
 803 04e4 3B1C     		mov	r3, r7
 804 04e6 1433     		add	r3, r3, #20
 805 04e8 3A1C     		mov	r2, r7
 806 04ea 1432     		add	r2, r2, #20
 807 04ec 1288     		ldrh	r2, [r2]
 808 04ee 0132     		add	r2, r2, #1
 809 04f0 1A80     		strh	r2, [r3]
 810              	.L50:
 202:C:/Users/b01252/Documents/Freescale/L4K/software/kinetis_kl46_sc/src/drivers/mcg\mcg.c ****   for (i = 0 ; i < 2000 ; i++)
 811              		.loc 1 202 0 is_stmt 0
 812 04f2 3B1C     		mov	r3, r7
 813 04f4 1433     		add	r3, r3, #20
 814 04f6 0021     		mov	r1, #0
 815 04f8 5A5E     		ldrsh	r2, [r3, r1]
 816 04fa 114B     		ldr	r3, .L63+4
 817 04fc 9A42     		cmp	r2, r3
 818 04fe E8DD     		ble	.L53
 819 0500 00E0     		b	.L52
 820              	.L60:
 821              		.loc 1 204 0 is_stmt 1
 822 0502 C046     		mov	r8, r8
 823              	.L52:
 205:C:/Users/b01252/Documents/Freescale/L4K/software/kinetis_kl46_sc/src/drivers/mcg\mcg.c ****   }
 206:C:/Users/b01252/Documents/Freescale/L4K/software/kinetis_kl46_sc/src/drivers/mcg\mcg.c ****   if (((MCG_S & MCG_S_CLKST_MASK) >> MCG_S_CLKST_SHIFT) != 0x3) return 0x1B; // check CLKST is set 
 824              		.loc 1 206 0
 825 0504 0D4B     		ldr	r3, .L63
 826 0506 9B79     		ldrb	r3, [r3, #6]
 827 0508 DBB2     		uxtb	r3, r3
 828 050a 1A1C     		mov	r2, r3
 829 050c 0C23     		mov	r3, #12
 830 050e 1340     		and	r3, r2
 831 0510 9B08     		lsr	r3, r3, #2
 832 0512 032B     		cmp	r3, #3
 833 0514 01D0     		beq	.L54
 834              		.loc 1 206 0 is_stmt 0
 835 0516 1B23     		mov	r3, #27
 836 0518 0BE0     		b	.L4
 837              	.L54:
 207:C:/Users/b01252/Documents/Freescale/L4K/software/kinetis_kl46_sc/src/drivers/mcg\mcg.c **** 
 208:C:/Users/b01252/Documents/Freescale/L4K/software/kinetis_kl46_sc/src/drivers/mcg\mcg.c ****   // Now in PEE
 209:C:/Users/b01252/Documents/Freescale/L4K/software/kinetis_kl46_sc/src/drivers/mcg\mcg.c ****   
 210:C:/Users/b01252/Documents/Freescale/L4K/software/kinetis_kl46_sc/src/drivers/mcg\mcg.c ****   return ((crystal_val / prdiv) * vdiv); //MCGOUT equals PLL output frequency
 838              		.loc 1 210 0 is_stmt 1
 839 051a 3B1C     		mov	r3, r7
 840 051c 0B33     		add	r3, r3, #11
 841 051e 1B78     		ldrb	r3, [r3]
 842 0520 7868     		ldr	r0, [r7, #4]
 843 0522 191C     		mov	r1, r3
 844 0524 FFF7FEFF 		bl	__aeabi_idiv
 845 0528 031C     		mov	r3, r0
 846 052a 3A1C     		mov	r2, r7
 847 052c 0A32     		add	r2, r2, #10
 848 052e 1278     		ldrb	r2, [r2]
 849 0530 5343     		mul	r3, r2
 850              	.L4:
 211:C:/Users/b01252/Documents/Freescale/L4K/software/kinetis_kl46_sc/src/drivers/mcg\mcg.c **** } // pll_init
 851              		.loc 1 211 0
 852 0532 181C     		mov	r0, r3
 853 0534 BD46     		mov	sp, r7
 854 0536 06B0     		add	sp, sp, #24
 855              		@ sp needed for prologue
 856 0538 80BD     		pop	{r7, pc}
 857              	.L64:
 858 053a C046     		.align	2
 859              	.L63:
 860 053c 00400640 		.word	1074151424
 861 0540 CF070000 		.word	1999
 862 0544 9F0F0000 		.word	3999
 863              		.cfi_endproc
 864              	.LFE0:
 866              		.section	.text.pee_pbe,"ax",%progbits
 867              		.align	2
 868              		.global	pee_pbe
 869              		.code	16
 870              		.thumb_func
 872              	pee_pbe:
 873              	.LFB1:
 212:C:/Users/b01252/Documents/Freescale/L4K/software/kinetis_kl46_sc/src/drivers/mcg\mcg.c **** 
 213:C:/Users/b01252/Documents/Freescale/L4K/software/kinetis_kl46_sc/src/drivers/mcg\mcg.c **** 
 214:C:/Users/b01252/Documents/Freescale/L4K/software/kinetis_kl46_sc/src/drivers/mcg\mcg.c **** 
 215:C:/Users/b01252/Documents/Freescale/L4K/software/kinetis_kl46_sc/src/drivers/mcg\mcg.c **** 
 216:C:/Users/b01252/Documents/Freescale/L4K/software/kinetis_kl46_sc/src/drivers/mcg\mcg.c **** /********************************************************************/
 217:C:/Users/b01252/Documents/Freescale/L4K/software/kinetis_kl46_sc/src/drivers/mcg\mcg.c **** 
 218:C:/Users/b01252/Documents/Freescale/L4K/software/kinetis_kl46_sc/src/drivers/mcg\mcg.c **** int pee_pbe(int crystal_val)
 219:C:/Users/b01252/Documents/Freescale/L4K/software/kinetis_kl46_sc/src/drivers/mcg\mcg.c **** {
 874              		.loc 1 219 0
 875              		.cfi_startproc
 876 0000 80B5     		push	{r7, lr}
 877              	.LCFI3:
 878              		.cfi_def_cfa_offset 8
 879              		.cfi_offset 7, -8
 880              		.cfi_offset 14, -4
 881 0002 84B0     		sub	sp, sp, #16
 882              	.LCFI4:
 883              		.cfi_def_cfa_offset 24
 884 0004 00AF     		add	r7, sp, #0
 885              	.LCFI5:
 886              		.cfi_def_cfa_register 7
 887 0006 7860     		str	r0, [r7, #4]
 220:C:/Users/b01252/Documents/Freescale/L4K/software/kinetis_kl46_sc/src/drivers/mcg\mcg.c ****   short i;
 221:C:/Users/b01252/Documents/Freescale/L4K/software/kinetis_kl46_sc/src/drivers/mcg\mcg.c ****   
 222:C:/Users/b01252/Documents/Freescale/L4K/software/kinetis_kl46_sc/src/drivers/mcg\mcg.c **** // Check MCG is in PEE mode
 223:C:/Users/b01252/Documents/Freescale/L4K/software/kinetis_kl46_sc/src/drivers/mcg\mcg.c ****   if (!((((MCG_S & MCG_S_CLKST_MASK) >> MCG_S_CLKST_SHIFT) == 0x3) && // check CLKS mux has selcted
 888              		.loc 1 223 0
 889 0008 274B     		ldr	r3, .L75
 890 000a 9B79     		ldrb	r3, [r3, #6]
 891 000c DBB2     		uxtb	r3, r3
 892 000e 1A1C     		mov	r2, r3
 893 0010 0C23     		mov	r3, #12
 894 0012 1340     		and	r3, r2
 895 0014 9B08     		lsr	r3, r3, #2
 896 0016 032B     		cmp	r3, #3
 897 0018 0DD1     		bne	.L66
 224:C:/Users/b01252/Documents/Freescale/L4K/software/kinetis_kl46_sc/src/drivers/mcg\mcg.c ****       (!(MCG_S & MCG_S_IREFST_MASK)) &&                               // check FLL ref is external 
 898              		.loc 1 224 0
 899 001a 234B     		ldr	r3, .L75
 900 001c 9B79     		ldrb	r3, [r3, #6]
 901 001e DBB2     		uxtb	r3, r3
 902 0020 1A1C     		mov	r2, r3
 903 0022 1023     		mov	r3, #16
 904 0024 1340     		and	r3, r2
 223:C:/Users/b01252/Documents/Freescale/L4K/software/kinetis_kl46_sc/src/drivers/mcg\mcg.c ****   if (!((((MCG_S & MCG_S_CLKST_MASK) >> MCG_S_CLKST_SHIFT) == 0x3) && // check CLKS mux has selcted
 905              		.loc 1 223 0
 906 0026 06D1     		bne	.L66
 225:C:/Users/b01252/Documents/Freescale/L4K/software/kinetis_kl46_sc/src/drivers/mcg\mcg.c ****       (MCG_S & MCG_S_PLLST_MASK)))                                    // check PLLS mux has selecte
 907              		.loc 1 225 0
 908 0028 1F4B     		ldr	r3, .L75
 909 002a 9B79     		ldrb	r3, [r3, #6]
 910 002c DBB2     		uxtb	r3, r3
 911 002e 1A1C     		mov	r2, r3
 912 0030 2023     		mov	r3, #32
 913 0032 1340     		and	r3, r2
 223:C:/Users/b01252/Documents/Freescale/L4K/software/kinetis_kl46_sc/src/drivers/mcg\mcg.c ****   if (!((((MCG_S & MCG_S_CLKST_MASK) >> MCG_S_CLKST_SHIFT) == 0x3) && // check CLKS mux has selcted
 914              		.loc 1 223 0
 915 0034 01D1     		bne	.L67
 916              	.L66:
 226:C:/Users/b01252/Documents/Freescale/L4K/software/kinetis_kl46_sc/src/drivers/mcg\mcg.c ****   {
 227:C:/Users/b01252/Documents/Freescale/L4K/software/kinetis_kl46_sc/src/drivers/mcg\mcg.c ****     return 0x8;                                                       // return error code
 917              		.loc 1 227 0
 918 0036 0823     		mov	r3, #8
 919 0038 32E0     		b	.L68
 920              	.L67:
 228:C:/Users/b01252/Documents/Freescale/L4K/software/kinetis_kl46_sc/src/drivers/mcg\mcg.c ****   } 
 229:C:/Users/b01252/Documents/Freescale/L4K/software/kinetis_kl46_sc/src/drivers/mcg\mcg.c ****   
 230:C:/Users/b01252/Documents/Freescale/L4K/software/kinetis_kl46_sc/src/drivers/mcg\mcg.c **** // As we are running from the PLL by default the PLL and external clock settings are valid
 231:C:/Users/b01252/Documents/Freescale/L4K/software/kinetis_kl46_sc/src/drivers/mcg\mcg.c **** // To move to PBE from PEE simply requires the switching of the CLKS mux to select the ext clock 
 232:C:/Users/b01252/Documents/Freescale/L4K/software/kinetis_kl46_sc/src/drivers/mcg\mcg.c **** // As CLKS is already 0 the CLKS value can simply be OR'ed into the register 
 233:C:/Users/b01252/Documents/Freescale/L4K/software/kinetis_kl46_sc/src/drivers/mcg\mcg.c ****   MCG_C1 |= MCG_C1_CLKS(2); // switch CLKS mux to select external reference clock as MCG_OUT
 921              		.loc 1 233 0
 922 003a 1B4B     		ldr	r3, .L75
 923 003c 1A4A     		ldr	r2, .L75
 924 003e 1278     		ldrb	r2, [r2]
 925 0040 D2B2     		uxtb	r2, r2
 926 0042 8021     		mov	r1, #128
 927 0044 4942     		neg	r1, r1
 928 0046 0A43     		orr	r2, r1
 929 0048 D2B2     		uxtb	r2, r2
 930 004a 1A70     		strb	r2, [r3]
 234:C:/Users/b01252/Documents/Freescale/L4K/software/kinetis_kl46_sc/src/drivers/mcg\mcg.c ****   
 235:C:/Users/b01252/Documents/Freescale/L4K/software/kinetis_kl46_sc/src/drivers/mcg\mcg.c **** // Wait for clock status bits to update 
 236:C:/Users/b01252/Documents/Freescale/L4K/software/kinetis_kl46_sc/src/drivers/mcg\mcg.c ****   for (i = 0 ; i < 2000 ; i++)
 931              		.loc 1 236 0
 932 004c 3B1C     		mov	r3, r7
 933 004e 0E33     		add	r3, r3, #14
 934 0050 0022     		mov	r2, #0
 935 0052 1A80     		strh	r2, [r3]
 936 0054 0FE0     		b	.L69
 937              	.L72:
 237:C:/Users/b01252/Documents/Freescale/L4K/software/kinetis_kl46_sc/src/drivers/mcg\mcg.c ****   {
 238:C:/Users/b01252/Documents/Freescale/L4K/software/kinetis_kl46_sc/src/drivers/mcg\mcg.c ****     if (((MCG_S & MCG_S_CLKST_MASK) >> MCG_S_CLKST_SHIFT) == 0x2) break; // jump out early if CLKST
 938              		.loc 1 238 0
 939 0056 144B     		ldr	r3, .L75
 940 0058 9B79     		ldrb	r3, [r3, #6]
 941 005a DBB2     		uxtb	r3, r3
 942 005c 1A1C     		mov	r2, r3
 943 005e 0C23     		mov	r3, #12
 944 0060 1340     		and	r3, r2
 945 0062 9B08     		lsr	r3, r3, #2
 946 0064 022B     		cmp	r3, #2
 947 0066 0ED0     		beq	.L74
 948              	.L70:
 236:C:/Users/b01252/Documents/Freescale/L4K/software/kinetis_kl46_sc/src/drivers/mcg\mcg.c ****   for (i = 0 ; i < 2000 ; i++)
 949              		.loc 1 236 0
 950 0068 3B1C     		mov	r3, r7
 951 006a 0E33     		add	r3, r3, #14
 952 006c 3A1C     		mov	r2, r7
 953 006e 0E32     		add	r2, r2, #14
 954 0070 1288     		ldrh	r2, [r2]
 955 0072 0132     		add	r2, r2, #1
 956 0074 1A80     		strh	r2, [r3]
 957              	.L69:
 236:C:/Users/b01252/Documents/Freescale/L4K/software/kinetis_kl46_sc/src/drivers/mcg\mcg.c ****   for (i = 0 ; i < 2000 ; i++)
 958              		.loc 1 236 0 is_stmt 0
 959 0076 3B1C     		mov	r3, r7
 960 0078 0E33     		add	r3, r3, #14
 961 007a 0021     		mov	r1, #0
 962 007c 5A5E     		ldrsh	r2, [r3, r1]
 963 007e 0B4B     		ldr	r3, .L75+4
 964 0080 9A42     		cmp	r2, r3
 965 0082 E8DD     		ble	.L72
 966 0084 00E0     		b	.L71
 967              	.L74:
 968              		.loc 1 238 0 is_stmt 1
 969 0086 C046     		mov	r8, r8
 970              	.L71:
 239:C:/Users/b01252/Documents/Freescale/L4K/software/kinetis_kl46_sc/src/drivers/mcg\mcg.c ****   }
 240:C:/Users/b01252/Documents/Freescale/L4K/software/kinetis_kl46_sc/src/drivers/mcg\mcg.c ****   if (((MCG_S & MCG_S_CLKST_MASK) >> MCG_S_CLKST_SHIFT) != 0x2) return 0x1A; // check EXT CLK is re
 971              		.loc 1 240 0
 972 0088 074B     		ldr	r3, .L75
 973 008a 9B79     		ldrb	r3, [r3, #6]
 974 008c DBB2     		uxtb	r3, r3
 975 008e 1A1C     		mov	r2, r3
 976 0090 0C23     		mov	r3, #12
 977 0092 1340     		and	r3, r2
 978 0094 9B08     		lsr	r3, r3, #2
 979 0096 022B     		cmp	r3, #2
 980 0098 01D0     		beq	.L73
 981              		.loc 1 240 0 is_stmt 0
 982 009a 1A23     		mov	r3, #26
 983 009c 00E0     		b	.L68
 984              	.L73:
 241:C:/Users/b01252/Documents/Freescale/L4K/software/kinetis_kl46_sc/src/drivers/mcg\mcg.c **** 
 242:C:/Users/b01252/Documents/Freescale/L4K/software/kinetis_kl46_sc/src/drivers/mcg\mcg.c **** // Now in PBE mode  
 243:C:/Users/b01252/Documents/Freescale/L4K/software/kinetis_kl46_sc/src/drivers/mcg\mcg.c ****   return crystal_val; // MCGOUT frequency equals external clock frequency
 985              		.loc 1 243 0 is_stmt 1
 986 009e 7B68     		ldr	r3, [r7, #4]
 987              	.L68:
 244:C:/Users/b01252/Documents/Freescale/L4K/software/kinetis_kl46_sc/src/drivers/mcg\mcg.c **** } // pee_pbe
 988              		.loc 1 244 0
 989 00a0 181C     		mov	r0, r3
 990 00a2 BD46     		mov	sp, r7
 991 00a4 04B0     		add	sp, sp, #16
 992              		@ sp needed for prologue
 993 00a6 80BD     		pop	{r7, pc}
 994              	.L76:
 995              		.align	2
 996              	.L75:
 997 00a8 00400640 		.word	1074151424
 998 00ac CF070000 		.word	1999
 999              		.cfi_endproc
 1000              	.LFE1:
 1002              		.section	.text.pbe_pee,"ax",%progbits
 1003              		.align	2
 1004              		.global	pbe_pee
 1005              		.code	16
 1006              		.thumb_func
 1008              	pbe_pee:
 1009              	.LFB2:
 245:C:/Users/b01252/Documents/Freescale/L4K/software/kinetis_kl46_sc/src/drivers/mcg\mcg.c **** 
 246:C:/Users/b01252/Documents/Freescale/L4K/software/kinetis_kl46_sc/src/drivers/mcg\mcg.c **** 
 247:C:/Users/b01252/Documents/Freescale/L4K/software/kinetis_kl46_sc/src/drivers/mcg\mcg.c **** int pbe_pee(int crystal_val)
 248:C:/Users/b01252/Documents/Freescale/L4K/software/kinetis_kl46_sc/src/drivers/mcg\mcg.c **** {
 1010              		.loc 1 248 0
 1011              		.cfi_startproc
 1012 0000 80B5     		push	{r7, lr}
 1013              	.LCFI6:
 1014              		.cfi_def_cfa_offset 8
 1015              		.cfi_offset 7, -8
 1016              		.cfi_offset 14, -4
 1017 0002 84B0     		sub	sp, sp, #16
 1018              	.LCFI7:
 1019              		.cfi_def_cfa_offset 24
 1020 0004 00AF     		add	r7, sp, #0
 1021              	.LCFI8:
 1022              		.cfi_def_cfa_register 7
 1023 0006 7860     		str	r0, [r7, #4]
 249:C:/Users/b01252/Documents/Freescale/L4K/software/kinetis_kl46_sc/src/drivers/mcg\mcg.c ****   unsigned char prdiv, vdiv;
 250:C:/Users/b01252/Documents/Freescale/L4K/software/kinetis_kl46_sc/src/drivers/mcg\mcg.c ****   short i;
 251:C:/Users/b01252/Documents/Freescale/L4K/software/kinetis_kl46_sc/src/drivers/mcg\mcg.c **** 
 252:C:/Users/b01252/Documents/Freescale/L4K/software/kinetis_kl46_sc/src/drivers/mcg\mcg.c ****   // Check MCG is in PBE mode
 253:C:/Users/b01252/Documents/Freescale/L4K/software/kinetis_kl46_sc/src/drivers/mcg\mcg.c ****   if (!((((MCG_S & MCG_S_CLKST_MASK) >> MCG_S_CLKST_SHIFT) == 0x2) && // check CLKS mux has selcted
 1024              		.loc 1 253 0
 1025 0008 4C4B     		ldr	r3, .L93
 1026 000a 9B79     		ldrb	r3, [r3, #6]
 1027 000c DBB2     		uxtb	r3, r3
 1028 000e 1A1C     		mov	r2, r3
 1029 0010 0C23     		mov	r3, #12
 1030 0012 1340     		and	r3, r2
 1031 0014 9B08     		lsr	r3, r3, #2
 1032 0016 022B     		cmp	r3, #2
 1033 0018 14D1     		bne	.L78
 254:C:/Users/b01252/Documents/Freescale/L4K/software/kinetis_kl46_sc/src/drivers/mcg\mcg.c ****       (!(MCG_S & MCG_S_IREFST_MASK)) &&                               // check FLL ref is external 
 1034              		.loc 1 254 0
 1035 001a 484B     		ldr	r3, .L93
 1036 001c 9B79     		ldrb	r3, [r3, #6]
 1037 001e DBB2     		uxtb	r3, r3
 1038 0020 1A1C     		mov	r2, r3
 1039 0022 1023     		mov	r3, #16
 1040 0024 1340     		and	r3, r2
 253:C:/Users/b01252/Documents/Freescale/L4K/software/kinetis_kl46_sc/src/drivers/mcg\mcg.c ****   if (!((((MCG_S & MCG_S_CLKST_MASK) >> MCG_S_CLKST_SHIFT) == 0x2) && // check CLKS mux has selcted
 1041              		.loc 1 253 0
 1042 0026 0DD1     		bne	.L78
 255:C:/Users/b01252/Documents/Freescale/L4K/software/kinetis_kl46_sc/src/drivers/mcg\mcg.c ****       (MCG_S & MCG_S_PLLST_MASK) &&                                   // check PLLS mux has selecte
 1043              		.loc 1 255 0
 1044 0028 444B     		ldr	r3, .L93
 1045 002a 9B79     		ldrb	r3, [r3, #6]
 1046 002c DBB2     		uxtb	r3, r3
 1047 002e 1A1C     		mov	r2, r3
 1048 0030 2023     		mov	r3, #32
 1049 0032 1340     		and	r3, r2
 254:C:/Users/b01252/Documents/Freescale/L4K/software/kinetis_kl46_sc/src/drivers/mcg\mcg.c ****       (!(MCG_S & MCG_S_IREFST_MASK)) &&                               // check FLL ref is external 
 1050              		.loc 1 254 0
 1051 0034 06D0     		beq	.L78
 256:C:/Users/b01252/Documents/Freescale/L4K/software/kinetis_kl46_sc/src/drivers/mcg\mcg.c ****       (!(MCG_C2 & MCG_C2_LP_MASK))))                                  // check MCG_C2[LP] bit is no
 1052              		.loc 1 256 0
 1053 0036 414B     		ldr	r3, .L93
 1054 0038 5B78     		ldrb	r3, [r3, #1]
 1055 003a DBB2     		uxtb	r3, r3
 1056 003c 1A1C     		mov	r2, r3
 1057 003e 0223     		mov	r3, #2
 1058 0040 1340     		and	r3, r2
 253:C:/Users/b01252/Documents/Freescale/L4K/software/kinetis_kl46_sc/src/drivers/mcg\mcg.c ****   if (!((((MCG_S & MCG_S_CLKST_MASK) >> MCG_S_CLKST_SHIFT) == 0x2) && // check CLKS mux has selcted
 1059              		.loc 1 253 0
 1060 0042 01D0     		beq	.L79
 1061              	.L78:
 257:C:/Users/b01252/Documents/Freescale/L4K/software/kinetis_kl46_sc/src/drivers/mcg\mcg.c ****   {
 258:C:/Users/b01252/Documents/Freescale/L4K/software/kinetis_kl46_sc/src/drivers/mcg\mcg.c ****     return 0x7;                                                       // return error code
 1062              		.loc 1 258 0
 1063 0044 0723     		mov	r3, #7
 1064 0046 75E0     		b	.L80
 1065              	.L79:
 259:C:/Users/b01252/Documents/Freescale/L4K/software/kinetis_kl46_sc/src/drivers/mcg\mcg.c ****   }
 260:C:/Users/b01252/Documents/Freescale/L4K/software/kinetis_kl46_sc/src/drivers/mcg\mcg.c **** 
 261:C:/Users/b01252/Documents/Freescale/L4K/software/kinetis_kl46_sc/src/drivers/mcg\mcg.c ****   // As the PLL settings have already been checked when PBE mode was enterred they are not checked 
 262:C:/Users/b01252/Documents/Freescale/L4K/software/kinetis_kl46_sc/src/drivers/mcg\mcg.c **** 
 263:C:/Users/b01252/Documents/Freescale/L4K/software/kinetis_kl46_sc/src/drivers/mcg\mcg.c ****   // Check the PLL state before transitioning to PEE mode
 264:C:/Users/b01252/Documents/Freescale/L4K/software/kinetis_kl46_sc/src/drivers/mcg\mcg.c ****   
 265:C:/Users/b01252/Documents/Freescale/L4K/software/kinetis_kl46_sc/src/drivers/mcg\mcg.c ****   // Check LOCK bit is set before transitioning MCG to PLL output (already checked in fbe_pbe but g
 266:C:/Users/b01252/Documents/Freescale/L4K/software/kinetis_kl46_sc/src/drivers/mcg\mcg.c ****   // to re-check before switch to use PLL)
 267:C:/Users/b01252/Documents/Freescale/L4K/software/kinetis_kl46_sc/src/drivers/mcg\mcg.c ****   for (i = 0 ; i < 2000 ; i++)
 1066              		.loc 1 267 0
 1067 0048 3B1C     		mov	r3, r7
 1068 004a 0E33     		add	r3, r3, #14
 1069 004c 0022     		mov	r2, #0
 1070 004e 1A80     		strh	r2, [r3]
 1071 0050 0DE0     		b	.L81
 1072              	.L84:
 268:C:/Users/b01252/Documents/Freescale/L4K/software/kinetis_kl46_sc/src/drivers/mcg\mcg.c ****   {
 269:C:/Users/b01252/Documents/Freescale/L4K/software/kinetis_kl46_sc/src/drivers/mcg\mcg.c ****     if (MCG_S & MCG_S_LOCK0_MASK) break; // jump out early if LOCK sets before loop finishes
 1073              		.loc 1 269 0
 1074 0052 3A4B     		ldr	r3, .L93
 1075 0054 9B79     		ldrb	r3, [r3, #6]
 1076 0056 DBB2     		uxtb	r3, r3
 1077 0058 1A1C     		mov	r2, r3
 1078 005a 4023     		mov	r3, #64
 1079 005c 1340     		and	r3, r2
 1080 005e 0ED1     		bne	.L91
 1081              	.L82:
 267:C:/Users/b01252/Documents/Freescale/L4K/software/kinetis_kl46_sc/src/drivers/mcg\mcg.c ****   for (i = 0 ; i < 2000 ; i++)
 1082              		.loc 1 267 0
 1083 0060 3B1C     		mov	r3, r7
 1084 0062 0E33     		add	r3, r3, #14
 1085 0064 3A1C     		mov	r2, r7
 1086 0066 0E32     		add	r2, r2, #14
 1087 0068 1288     		ldrh	r2, [r2]
 1088 006a 0132     		add	r2, r2, #1
 1089 006c 1A80     		strh	r2, [r3]
 1090              	.L81:
 267:C:/Users/b01252/Documents/Freescale/L4K/software/kinetis_kl46_sc/src/drivers/mcg\mcg.c ****   for (i = 0 ; i < 2000 ; i++)
 1091              		.loc 1 267 0 is_stmt 0
 1092 006e 3B1C     		mov	r3, r7
 1093 0070 0E33     		add	r3, r3, #14
 1094 0072 0021     		mov	r1, #0
 1095 0074 5A5E     		ldrsh	r2, [r3, r1]
 1096 0076 324B     		ldr	r3, .L93+4
 1097 0078 9A42     		cmp	r2, r3
 1098 007a EADD     		ble	.L84
 1099 007c 00E0     		b	.L83
 1100              	.L91:
 1101              		.loc 1 269 0 is_stmt 1
 1102 007e C046     		mov	r8, r8
 1103              	.L83:
 270:C:/Users/b01252/Documents/Freescale/L4K/software/kinetis_kl46_sc/src/drivers/mcg\mcg.c ****   }
 271:C:/Users/b01252/Documents/Freescale/L4K/software/kinetis_kl46_sc/src/drivers/mcg\mcg.c ****   if (!(MCG_S & MCG_S_LOCK0_MASK)) return 0x44; // check bit is really set and return with error if
 1104              		.loc 1 271 0
 1105 0080 2E4B     		ldr	r3, .L93
 1106 0082 9B79     		ldrb	r3, [r3, #6]
 1107 0084 DBB2     		uxtb	r3, r3
 1108 0086 1A1C     		mov	r2, r3
 1109 0088 4023     		mov	r3, #64
 1110 008a 1340     		and	r3, r2
 1111 008c 01D1     		bne	.L85
 1112              		.loc 1 271 0 is_stmt 0
 1113 008e 4423     		mov	r3, #68
 1114 0090 50E0     		b	.L80
 1115              	.L85:
 272:C:/Users/b01252/Documents/Freescale/L4K/software/kinetis_kl46_sc/src/drivers/mcg\mcg.c ****   // Use actual PLL settings to calculate PLL frequency
 273:C:/Users/b01252/Documents/Freescale/L4K/software/kinetis_kl46_sc/src/drivers/mcg\mcg.c ****   prdiv = ((MCG_C5 & MCG_C5_PRDIV0_MASK) + 1);
 1116              		.loc 1 273 0 is_stmt 1
 1117 0092 2A4B     		ldr	r3, .L93
 1118 0094 1B79     		ldrb	r3, [r3, #4]
 1119 0096 DAB2     		uxtb	r2, r3
 1120 0098 1F23     		mov	r3, #31
 1121 009a 1340     		and	r3, r2
 1122 009c DAB2     		uxtb	r2, r3
 1123 009e 3B1C     		mov	r3, r7
 1124 00a0 0D33     		add	r3, r3, #13
 1125 00a2 0132     		add	r2, r2, #1
 1126 00a4 1A70     		strb	r2, [r3]
 274:C:/Users/b01252/Documents/Freescale/L4K/software/kinetis_kl46_sc/src/drivers/mcg\mcg.c ****   vdiv = ((MCG_C6 & MCG_C6_VDIV0_MASK) + 24);
 1127              		.loc 1 274 0
 1128 00a6 254B     		ldr	r3, .L93
 1129 00a8 5B79     		ldrb	r3, [r3, #5]
 1130 00aa DAB2     		uxtb	r2, r3
 1131 00ac 1F23     		mov	r3, #31
 1132 00ae 1340     		and	r3, r2
 1133 00b0 DAB2     		uxtb	r2, r3
 1134 00b2 3B1C     		mov	r3, r7
 1135 00b4 0C33     		add	r3, r3, #12
 1136 00b6 1832     		add	r2, r2, #24
 1137 00b8 1A70     		strb	r2, [r3]
 275:C:/Users/b01252/Documents/Freescale/L4K/software/kinetis_kl46_sc/src/drivers/mcg\mcg.c ****   
 276:C:/Users/b01252/Documents/Freescale/L4K/software/kinetis_kl46_sc/src/drivers/mcg\mcg.c ****   MCG_C1 &= ~MCG_C1_CLKS_MASK; // clear CLKS to switch CLKS mux to select PLL as MCG_OUT
 1138              		.loc 1 276 0
 1139 00ba 204B     		ldr	r3, .L93
 1140 00bc 1F4A     		ldr	r2, .L93
 1141 00be 1278     		ldrb	r2, [r2]
 1142 00c0 D1B2     		uxtb	r1, r2
 1143 00c2 3F22     		mov	r2, #63
 1144 00c4 0A40     		and	r2, r1
 1145 00c6 D2B2     		uxtb	r2, r2
 1146 00c8 1A70     		strb	r2, [r3]
 277:C:/Users/b01252/Documents/Freescale/L4K/software/kinetis_kl46_sc/src/drivers/mcg\mcg.c **** 
 278:C:/Users/b01252/Documents/Freescale/L4K/software/kinetis_kl46_sc/src/drivers/mcg\mcg.c ****   // Wait for clock status bits to update
 279:C:/Users/b01252/Documents/Freescale/L4K/software/kinetis_kl46_sc/src/drivers/mcg\mcg.c ****   for (i = 0 ; i < 2000 ; i++)
 1147              		.loc 1 279 0
 1148 00ca 3B1C     		mov	r3, r7
 1149 00cc 0E33     		add	r3, r3, #14
 1150 00ce 0022     		mov	r2, #0
 1151 00d0 1A80     		strh	r2, [r3]
 1152 00d2 0FE0     		b	.L86
 1153              	.L89:
 280:C:/Users/b01252/Documents/Freescale/L4K/software/kinetis_kl46_sc/src/drivers/mcg\mcg.c ****   {
 281:C:/Users/b01252/Documents/Freescale/L4K/software/kinetis_kl46_sc/src/drivers/mcg\mcg.c ****     if (((MCG_S & MCG_S_CLKST_MASK) >> MCG_S_CLKST_SHIFT) == 0x3) break; // jump out early if CLKST
 1154              		.loc 1 281 0
 1155 00d4 194B     		ldr	r3, .L93
 1156 00d6 9B79     		ldrb	r3, [r3, #6]
 1157 00d8 DBB2     		uxtb	r3, r3
 1158 00da 1A1C     		mov	r2, r3
 1159 00dc 0C23     		mov	r3, #12
 1160 00de 1340     		and	r3, r2
 1161 00e0 9B08     		lsr	r3, r3, #2
 1162 00e2 032B     		cmp	r3, #3
 1163 00e4 0ED0     		beq	.L92
 1164              	.L87:
 279:C:/Users/b01252/Documents/Freescale/L4K/software/kinetis_kl46_sc/src/drivers/mcg\mcg.c ****   for (i = 0 ; i < 2000 ; i++)
 1165              		.loc 1 279 0
 1166 00e6 3B1C     		mov	r3, r7
 1167 00e8 0E33     		add	r3, r3, #14
 1168 00ea 3A1C     		mov	r2, r7
 1169 00ec 0E32     		add	r2, r2, #14
 1170 00ee 1288     		ldrh	r2, [r2]
 1171 00f0 0132     		add	r2, r2, #1
 1172 00f2 1A80     		strh	r2, [r3]
 1173              	.L86:
 279:C:/Users/b01252/Documents/Freescale/L4K/software/kinetis_kl46_sc/src/drivers/mcg\mcg.c ****   for (i = 0 ; i < 2000 ; i++)
 1174              		.loc 1 279 0 is_stmt 0
 1175 00f4 3B1C     		mov	r3, r7
 1176 00f6 0E33     		add	r3, r3, #14
 1177 00f8 0021     		mov	r1, #0
 1178 00fa 5A5E     		ldrsh	r2, [r3, r1]
 1179 00fc 104B     		ldr	r3, .L93+4
 1180 00fe 9A42     		cmp	r2, r3
 1181 0100 E8DD     		ble	.L89
 1182 0102 00E0     		b	.L88
 1183              	.L92:
 1184              		.loc 1 281 0 is_stmt 1
 1185 0104 C046     		mov	r8, r8
 1186              	.L88:
 282:C:/Users/b01252/Documents/Freescale/L4K/software/kinetis_kl46_sc/src/drivers/mcg\mcg.c ****   }
 283:C:/Users/b01252/Documents/Freescale/L4K/software/kinetis_kl46_sc/src/drivers/mcg\mcg.c ****   if (((MCG_S & MCG_S_CLKST_MASK) >> MCG_S_CLKST_SHIFT) != 0x3) return 0x1B; // check CLKST is set 
 1187              		.loc 1 283 0
 1188 0106 0D4B     		ldr	r3, .L93
 1189 0108 9B79     		ldrb	r3, [r3, #6]
 1190 010a DBB2     		uxtb	r3, r3
 1191 010c 1A1C     		mov	r2, r3
 1192 010e 0C23     		mov	r3, #12
 1193 0110 1340     		and	r3, r2
 1194 0112 9B08     		lsr	r3, r3, #2
 1195 0114 032B     		cmp	r3, #3
 1196 0116 01D0     		beq	.L90
 1197              		.loc 1 283 0 is_stmt 0
 1198 0118 1B23     		mov	r3, #27
 1199 011a 0BE0     		b	.L80
 1200              	.L90:
 284:C:/Users/b01252/Documents/Freescale/L4K/software/kinetis_kl46_sc/src/drivers/mcg\mcg.c **** 
 285:C:/Users/b01252/Documents/Freescale/L4K/software/kinetis_kl46_sc/src/drivers/mcg\mcg.c ****   // Now in PEE
 286:C:/Users/b01252/Documents/Freescale/L4K/software/kinetis_kl46_sc/src/drivers/mcg\mcg.c ****   return ((crystal_val / prdiv) * vdiv); //MCGOUT equals PLL output frequency
 1201              		.loc 1 286 0 is_stmt 1
 1202 011c 3B1C     		mov	r3, r7
 1203 011e 0D33     		add	r3, r3, #13
 1204 0120 1B78     		ldrb	r3, [r3]
 1205 0122 7868     		ldr	r0, [r7, #4]
 1206 0124 191C     		mov	r1, r3
 1207 0126 FFF7FEFF 		bl	__aeabi_idiv
 1208 012a 031C     		mov	r3, r0
 1209 012c 3A1C     		mov	r2, r7
 1210 012e 0C32     		add	r2, r2, #12
 1211 0130 1278     		ldrb	r2, [r2]
 1212 0132 5343     		mul	r3, r2
 1213              	.L80:
 287:C:/Users/b01252/Documents/Freescale/L4K/software/kinetis_kl46_sc/src/drivers/mcg\mcg.c ****   
 288:C:/Users/b01252/Documents/Freescale/L4K/software/kinetis_kl46_sc/src/drivers/mcg\mcg.c **** }  // pbe_pee
 1214              		.loc 1 288 0
 1215 0134 181C     		mov	r0, r3
 1216 0136 BD46     		mov	sp, r7
 1217 0138 04B0     		add	sp, sp, #16
 1218              		@ sp needed for prologue
 1219 013a 80BD     		pop	{r7, pc}
 1220              	.L94:
 1221              		.align	2
 1222              	.L93:
 1223 013c 00400640 		.word	1074151424
 1224 0140 CF070000 		.word	1999
 1225              		.cfi_endproc
 1226              	.LFE2:
 1228              		.section	.text.pbe_fbe,"ax",%progbits
 1229              		.align	2
 1230              		.global	pbe_fbe
 1231              		.code	16
 1232              		.thumb_func
 1234              	pbe_fbe:
 1235              	.LFB3:
 289:C:/Users/b01252/Documents/Freescale/L4K/software/kinetis_kl46_sc/src/drivers/mcg\mcg.c **** 
 290:C:/Users/b01252/Documents/Freescale/L4K/software/kinetis_kl46_sc/src/drivers/mcg\mcg.c **** 
 291:C:/Users/b01252/Documents/Freescale/L4K/software/kinetis_kl46_sc/src/drivers/mcg\mcg.c **** int pbe_fbe(int crystal_val)
 292:C:/Users/b01252/Documents/Freescale/L4K/software/kinetis_kl46_sc/src/drivers/mcg\mcg.c **** {
 1236              		.loc 1 292 0
 1237              		.cfi_startproc
 1238 0000 80B5     		push	{r7, lr}
 1239              	.LCFI9:
 1240              		.cfi_def_cfa_offset 8
 1241              		.cfi_offset 7, -8
 1242              		.cfi_offset 14, -4
 1243 0002 84B0     		sub	sp, sp, #16
 1244              	.LCFI10:
 1245              		.cfi_def_cfa_offset 24
 1246 0004 00AF     		add	r7, sp, #0
 1247              	.LCFI11:
 1248              		.cfi_def_cfa_register 7
 1249 0006 7860     		str	r0, [r7, #4]
 293:C:/Users/b01252/Documents/Freescale/L4K/software/kinetis_kl46_sc/src/drivers/mcg\mcg.c ****   short i;
 294:C:/Users/b01252/Documents/Freescale/L4K/software/kinetis_kl46_sc/src/drivers/mcg\mcg.c ****   
 295:C:/Users/b01252/Documents/Freescale/L4K/software/kinetis_kl46_sc/src/drivers/mcg\mcg.c **** // Check MCG is in PBE mode
 296:C:/Users/b01252/Documents/Freescale/L4K/software/kinetis_kl46_sc/src/drivers/mcg\mcg.c ****   if (!((((MCG_S & MCG_S_CLKST_MASK) >> MCG_S_CLKST_SHIFT) == 0x2) && // check CLKS mux has selcted
 1250              		.loc 1 296 0
 1251 0008 284B     		ldr	r3, .L105
 1252 000a 9B79     		ldrb	r3, [r3, #6]
 1253 000c DBB2     		uxtb	r3, r3
 1254 000e 1A1C     		mov	r2, r3
 1255 0010 0C23     		mov	r3, #12
 1256 0012 1340     		and	r3, r2
 1257 0014 9B08     		lsr	r3, r3, #2
 1258 0016 022B     		cmp	r3, #2
 1259 0018 14D1     		bne	.L96
 297:C:/Users/b01252/Documents/Freescale/L4K/software/kinetis_kl46_sc/src/drivers/mcg\mcg.c ****       (!(MCG_S & MCG_S_IREFST_MASK)) &&                               // check FLL ref is external 
 1260              		.loc 1 297 0
 1261 001a 244B     		ldr	r3, .L105
 1262 001c 9B79     		ldrb	r3, [r3, #6]
 1263 001e DBB2     		uxtb	r3, r3
 1264 0020 1A1C     		mov	r2, r3
 1265 0022 1023     		mov	r3, #16
 1266 0024 1340     		and	r3, r2
 296:C:/Users/b01252/Documents/Freescale/L4K/software/kinetis_kl46_sc/src/drivers/mcg\mcg.c ****   if (!((((MCG_S & MCG_S_CLKST_MASK) >> MCG_S_CLKST_SHIFT) == 0x2) && // check CLKS mux has selcted
 1267              		.loc 1 296 0
 1268 0026 0DD1     		bne	.L96
 298:C:/Users/b01252/Documents/Freescale/L4K/software/kinetis_kl46_sc/src/drivers/mcg\mcg.c ****       (MCG_S & MCG_S_PLLST_MASK) &&                                   // check PLLS mux has selecte
 1269              		.loc 1 298 0
 1270 0028 204B     		ldr	r3, .L105
 1271 002a 9B79     		ldrb	r3, [r3, #6]
 1272 002c DBB2     		uxtb	r3, r3
 1273 002e 1A1C     		mov	r2, r3
 1274 0030 2023     		mov	r3, #32
 1275 0032 1340     		and	r3, r2
 297:C:/Users/b01252/Documents/Freescale/L4K/software/kinetis_kl46_sc/src/drivers/mcg\mcg.c ****       (!(MCG_S & MCG_S_IREFST_MASK)) &&                               // check FLL ref is external 
 1276              		.loc 1 297 0
 1277 0034 06D0     		beq	.L96
 299:C:/Users/b01252/Documents/Freescale/L4K/software/kinetis_kl46_sc/src/drivers/mcg\mcg.c ****       (!(MCG_C2 & MCG_C2_LP_MASK))))                                  // check MCG_C2[LP] bit is no
 1278              		.loc 1 299 0
 1279 0036 1D4B     		ldr	r3, .L105
 1280 0038 5B78     		ldrb	r3, [r3, #1]
 1281 003a DBB2     		uxtb	r3, r3
 1282 003c 1A1C     		mov	r2, r3
 1283 003e 0223     		mov	r3, #2
 1284 0040 1340     		and	r3, r2
 296:C:/Users/b01252/Documents/Freescale/L4K/software/kinetis_kl46_sc/src/drivers/mcg\mcg.c ****   if (!((((MCG_S & MCG_S_CLKST_MASK) >> MCG_S_CLKST_SHIFT) == 0x2) && // check CLKS mux has selcted
 1285              		.loc 1 296 0
 1286 0042 01D0     		beq	.L97
 1287              	.L96:
 300:C:/Users/b01252/Documents/Freescale/L4K/software/kinetis_kl46_sc/src/drivers/mcg\mcg.c ****   {
 301:C:/Users/b01252/Documents/Freescale/L4K/software/kinetis_kl46_sc/src/drivers/mcg\mcg.c ****     return 0x7;                                                       // return error code
 1288              		.loc 1 301 0
 1289 0044 0723     		mov	r3, #7
 1290 0046 2DE0     		b	.L98
 1291              	.L97:
 302:C:/Users/b01252/Documents/Freescale/L4K/software/kinetis_kl46_sc/src/drivers/mcg\mcg.c ****   }
 303:C:/Users/b01252/Documents/Freescale/L4K/software/kinetis_kl46_sc/src/drivers/mcg\mcg.c **** 
 304:C:/Users/b01252/Documents/Freescale/L4K/software/kinetis_kl46_sc/src/drivers/mcg\mcg.c **** // As we are running from the ext clock, by default the external clock settings are valid
 305:C:/Users/b01252/Documents/Freescale/L4K/software/kinetis_kl46_sc/src/drivers/mcg\mcg.c **** // To move to FBE from PBE simply requires the switching of the PLLS mux to disable the PLL 
 306:C:/Users/b01252/Documents/Freescale/L4K/software/kinetis_kl46_sc/src/drivers/mcg\mcg.c ****   
 307:C:/Users/b01252/Documents/Freescale/L4K/software/kinetis_kl46_sc/src/drivers/mcg\mcg.c ****   MCG_C6 &= ~MCG_C6_PLLS_MASK; // clear PLLS to disable PLL, still clocked from ext ref clk
 1292              		.loc 1 307 0
 1293 0048 184B     		ldr	r3, .L105
 1294 004a 184A     		ldr	r2, .L105
 1295 004c 5279     		ldrb	r2, [r2, #5]
 1296 004e D2B2     		uxtb	r2, r2
 1297 0050 4021     		mov	r1, #64
 1298 0052 8A43     		bic	r2, r1
 1299 0054 D2B2     		uxtb	r2, r2
 1300 0056 5A71     		strb	r2, [r3, #5]
 308:C:/Users/b01252/Documents/Freescale/L4K/software/kinetis_kl46_sc/src/drivers/mcg\mcg.c ****   
 309:C:/Users/b01252/Documents/Freescale/L4K/software/kinetis_kl46_sc/src/drivers/mcg\mcg.c **** // wait for PLLST status bit to set
 310:C:/Users/b01252/Documents/Freescale/L4K/software/kinetis_kl46_sc/src/drivers/mcg\mcg.c ****   for (i = 0 ; i < 2000 ; i++)
 1301              		.loc 1 310 0
 1302 0058 3B1C     		mov	r3, r7
 1303 005a 0E33     		add	r3, r3, #14
 1304 005c 0022     		mov	r2, #0
 1305 005e 1A80     		strh	r2, [r3]
 1306 0060 0DE0     		b	.L99
 1307              	.L102:
 311:C:/Users/b01252/Documents/Freescale/L4K/software/kinetis_kl46_sc/src/drivers/mcg\mcg.c ****   {
 312:C:/Users/b01252/Documents/Freescale/L4K/software/kinetis_kl46_sc/src/drivers/mcg\mcg.c ****     if (!(MCG_S & MCG_S_PLLST_MASK)) break; // jump out early if PLLST clears before loop finishes
 1308              		.loc 1 312 0
 1309 0062 124B     		ldr	r3, .L105
 1310 0064 9B79     		ldrb	r3, [r3, #6]
 1311 0066 DBB2     		uxtb	r3, r3
 1312 0068 1A1C     		mov	r2, r3
 1313 006a 2023     		mov	r3, #32
 1314 006c 1340     		and	r3, r2
 1315 006e 0ED0     		beq	.L104
 1316              	.L100:
 310:C:/Users/b01252/Documents/Freescale/L4K/software/kinetis_kl46_sc/src/drivers/mcg\mcg.c ****   for (i = 0 ; i < 2000 ; i++)
 1317              		.loc 1 310 0
 1318 0070 3B1C     		mov	r3, r7
 1319 0072 0E33     		add	r3, r3, #14
 1320 0074 3A1C     		mov	r2, r7
 1321 0076 0E32     		add	r2, r2, #14
 1322 0078 1288     		ldrh	r2, [r2]
 1323 007a 0132     		add	r2, r2, #1
 1324 007c 1A80     		strh	r2, [r3]
 1325              	.L99:
 310:C:/Users/b01252/Documents/Freescale/L4K/software/kinetis_kl46_sc/src/drivers/mcg\mcg.c ****   for (i = 0 ; i < 2000 ; i++)
 1326              		.loc 1 310 0 is_stmt 0
 1327 007e 3B1C     		mov	r3, r7
 1328 0080 0E33     		add	r3, r3, #14
 1329 0082 0021     		mov	r1, #0
 1330 0084 5A5E     		ldrsh	r2, [r3, r1]
 1331 0086 0A4B     		ldr	r3, .L105+4
 1332 0088 9A42     		cmp	r2, r3
 1333 008a EADD     		ble	.L102
 1334 008c 00E0     		b	.L101
 1335              	.L104:
 1336              		.loc 1 312 0 is_stmt 1
 1337 008e C046     		mov	r8, r8
 1338              	.L101:
 313:C:/Users/b01252/Documents/Freescale/L4K/software/kinetis_kl46_sc/src/drivers/mcg\mcg.c ****   }
 314:C:/Users/b01252/Documents/Freescale/L4K/software/kinetis_kl46_sc/src/drivers/mcg\mcg.c ****   if (MCG_S & MCG_S_PLLST_MASK) return 0x15; // check bit is really clear and return with error if 
 1339              		.loc 1 314 0
 1340 0090 064B     		ldr	r3, .L105
 1341 0092 9B79     		ldrb	r3, [r3, #6]
 1342 0094 DBB2     		uxtb	r3, r3
 1343 0096 1A1C     		mov	r2, r3
 1344 0098 2023     		mov	r3, #32
 1345 009a 1340     		and	r3, r2
 1346 009c 01D0     		beq	.L103
 1347              		.loc 1 314 0 is_stmt 0
 1348 009e 1523     		mov	r3, #21
 1349 00a0 00E0     		b	.L98
 1350              	.L103:
 315:C:/Users/b01252/Documents/Freescale/L4K/software/kinetis_kl46_sc/src/drivers/mcg\mcg.c **** 
 316:C:/Users/b01252/Documents/Freescale/L4K/software/kinetis_kl46_sc/src/drivers/mcg\mcg.c **** // Now in FBE mode  
 317:C:/Users/b01252/Documents/Freescale/L4K/software/kinetis_kl46_sc/src/drivers/mcg\mcg.c ****   return crystal_val; // MCGOUT frequency equals external clock frequency 
 1351              		.loc 1 317 0 is_stmt 1
 1352 00a2 7B68     		ldr	r3, [r7, #4]
 1353              	.L98:
 318:C:/Users/b01252/Documents/Freescale/L4K/software/kinetis_kl46_sc/src/drivers/mcg\mcg.c **** } // pbe_fbe
 1354              		.loc 1 318 0
 1355 00a4 181C     		mov	r0, r3
 1356 00a6 BD46     		mov	sp, r7
 1357 00a8 04B0     		add	sp, sp, #16
 1358              		@ sp needed for prologue
 1359 00aa 80BD     		pop	{r7, pc}
 1360              	.L106:
 1361              		.align	2
 1362              	.L105:
 1363 00ac 00400640 		.word	1074151424
 1364 00b0 CF070000 		.word	1999
 1365              		.cfi_endproc
 1366              	.LFE3:
 1368              		.section	.text.fbe_pbe,"ax",%progbits
 1369              		.align	2
 1370              		.global	fbe_pbe
 1371              		.code	16
 1372              		.thumb_func
 1374              	fbe_pbe:
 1375              	.LFB4:
 319:C:/Users/b01252/Documents/Freescale/L4K/software/kinetis_kl46_sc/src/drivers/mcg\mcg.c **** 
 320:C:/Users/b01252/Documents/Freescale/L4K/software/kinetis_kl46_sc/src/drivers/mcg\mcg.c **** 
 321:C:/Users/b01252/Documents/Freescale/L4K/software/kinetis_kl46_sc/src/drivers/mcg\mcg.c **** /********************************************************************/
 322:C:/Users/b01252/Documents/Freescale/L4K/software/kinetis_kl46_sc/src/drivers/mcg\mcg.c **** /* Functon name : fbe_pbe
 323:C:/Users/b01252/Documents/Freescale/L4K/software/kinetis_kl46_sc/src/drivers/mcg\mcg.c ****  *
 324:C:/Users/b01252/Documents/Freescale/L4K/software/kinetis_kl46_sc/src/drivers/mcg\mcg.c ****  * Mode transition: FBE to PBE mode
 325:C:/Users/b01252/Documents/Freescale/L4K/software/kinetis_kl46_sc/src/drivers/mcg\mcg.c ****  *
 326:C:/Users/b01252/Documents/Freescale/L4K/software/kinetis_kl46_sc/src/drivers/mcg\mcg.c ****  * This function transitions the MCG from FBE mode to PBE mode. 
 327:C:/Users/b01252/Documents/Freescale/L4K/software/kinetis_kl46_sc/src/drivers/mcg\mcg.c ****  * This function presently only supports OSC0 and PLL0. Support for OSC1 and PLL1 will be added soo
 328:C:/Users/b01252/Documents/Freescale/L4K/software/kinetis_kl46_sc/src/drivers/mcg\mcg.c ****  * The function requires the desired OSC and PLL be passed in to it for compatibility with the
 329:C:/Users/b01252/Documents/Freescale/L4K/software/kinetis_kl46_sc/src/drivers/mcg\mcg.c ****  * future support of OSC/PLL selection
 330:C:/Users/b01252/Documents/Freescale/L4K/software/kinetis_kl46_sc/src/drivers/mcg\mcg.c ****  *
 331:C:/Users/b01252/Documents/Freescale/L4K/software/kinetis_kl46_sc/src/drivers/mcg\mcg.c ****  * Parameters: crystal_val - external clock frequency in Hz
 332:C:/Users/b01252/Documents/Freescale/L4K/software/kinetis_kl46_sc/src/drivers/mcg\mcg.c ****  *             prdiv_val   - value to divide the external clock source by to create the desired
 333:C:/Users/b01252/Documents/Freescale/L4K/software/kinetis_kl46_sc/src/drivers/mcg\mcg.c ****  *                           PLL reference clock frequency
 334:C:/Users/b01252/Documents/Freescale/L4K/software/kinetis_kl46_sc/src/drivers/mcg\mcg.c ****  *             vdiv_val    - value to multiply the PLL reference clock frequency by
 335:C:/Users/b01252/Documents/Freescale/L4K/software/kinetis_kl46_sc/src/drivers/mcg\mcg.c ****  *
 336:C:/Users/b01252/Documents/Freescale/L4K/software/kinetis_kl46_sc/src/drivers/mcg\mcg.c ****  * Return value : MCGCLKOUT frequency (Hz) or error code
 337:C:/Users/b01252/Documents/Freescale/L4K/software/kinetis_kl46_sc/src/drivers/mcg\mcg.c ****  */
 338:C:/Users/b01252/Documents/Freescale/L4K/software/kinetis_kl46_sc/src/drivers/mcg\mcg.c **** int fbe_pbe(int crystal_val, signed char prdiv_val, signed char vdiv_val)
 339:C:/Users/b01252/Documents/Freescale/L4K/software/kinetis_kl46_sc/src/drivers/mcg\mcg.c **** {
 1376              		.loc 1 339 0
 1377              		.cfi_startproc
 1378 0000 80B5     		push	{r7, lr}
 1379              	.LCFI12:
 1380              		.cfi_def_cfa_offset 8
 1381              		.cfi_offset 7, -8
 1382              		.cfi_offset 14, -4
 1383 0002 86B0     		sub	sp, sp, #24
 1384              	.LCFI13:
 1385              		.cfi_def_cfa_offset 32
 1386 0004 00AF     		add	r7, sp, #0
 1387              	.LCFI14:
 1388              		.cfi_def_cfa_register 7
 1389 0006 7860     		str	r0, [r7, #4]
 1390 0008 FB1C     		add	r3, r7, #3
 1391 000a 1970     		strb	r1, [r3]
 1392 000c BB1C     		add	r3, r7, #2
 1393 000e 1A70     		strb	r2, [r3]
 340:C:/Users/b01252/Documents/Freescale/L4K/software/kinetis_kl46_sc/src/drivers/mcg\mcg.c ****   unsigned char temp_reg;
 341:C:/Users/b01252/Documents/Freescale/L4K/software/kinetis_kl46_sc/src/drivers/mcg\mcg.c ****   short i;
 342:C:/Users/b01252/Documents/Freescale/L4K/software/kinetis_kl46_sc/src/drivers/mcg\mcg.c ****   int pll_freq;
 343:C:/Users/b01252/Documents/Freescale/L4K/software/kinetis_kl46_sc/src/drivers/mcg\mcg.c ****   
 344:C:/Users/b01252/Documents/Freescale/L4K/software/kinetis_kl46_sc/src/drivers/mcg\mcg.c **** // Check MCG is in FBE mode
 345:C:/Users/b01252/Documents/Freescale/L4K/software/kinetis_kl46_sc/src/drivers/mcg\mcg.c ****   if (!((((MCG_S & MCG_S_CLKST_MASK) >> MCG_S_CLKST_SHIFT) == 0x2) && // check CLKS mux has selcted
 1394              		.loc 1 345 0
 1395 0010 7D4B     		ldr	r3, .L131
 1396 0012 9B79     		ldrb	r3, [r3, #6]
 1397 0014 DBB2     		uxtb	r3, r3
 1398 0016 1A1C     		mov	r2, r3
 1399 0018 0C23     		mov	r3, #12
 1400 001a 1340     		and	r3, r2
 1401 001c 9B08     		lsr	r3, r3, #2
 1402 001e 022B     		cmp	r3, #2
 1403 0020 14D1     		bne	.L108
 346:C:/Users/b01252/Documents/Freescale/L4K/software/kinetis_kl46_sc/src/drivers/mcg\mcg.c ****       (!(MCG_S & MCG_S_IREFST_MASK)) &&                               // check FLL ref is external 
 1404              		.loc 1 346 0
 1405 0022 794B     		ldr	r3, .L131
 1406 0024 9B79     		ldrb	r3, [r3, #6]
 1407 0026 DBB2     		uxtb	r3, r3
 1408 0028 1A1C     		mov	r2, r3
 1409 002a 1023     		mov	r3, #16
 1410 002c 1340     		and	r3, r2
 345:C:/Users/b01252/Documents/Freescale/L4K/software/kinetis_kl46_sc/src/drivers/mcg\mcg.c ****   if (!((((MCG_S & MCG_S_CLKST_MASK) >> MCG_S_CLKST_SHIFT) == 0x2) && // check CLKS mux has selcted
 1411              		.loc 1 345 0
 1412 002e 0DD1     		bne	.L108
 347:C:/Users/b01252/Documents/Freescale/L4K/software/kinetis_kl46_sc/src/drivers/mcg\mcg.c ****       (!(MCG_S & MCG_S_PLLST_MASK)) &&                                // check PLLS mux has selecte
 1413              		.loc 1 347 0
 1414 0030 754B     		ldr	r3, .L131
 1415 0032 9B79     		ldrb	r3, [r3, #6]
 1416 0034 DBB2     		uxtb	r3, r3
 1417 0036 1A1C     		mov	r2, r3
 1418 0038 2023     		mov	r3, #32
 1419 003a 1340     		and	r3, r2
 346:C:/Users/b01252/Documents/Freescale/L4K/software/kinetis_kl46_sc/src/drivers/mcg\mcg.c ****       (!(MCG_S & MCG_S_IREFST_MASK)) &&                               // check FLL ref is external 
 1420              		.loc 1 346 0
 1421 003c 06D1     		bne	.L108
 348:C:/Users/b01252/Documents/Freescale/L4K/software/kinetis_kl46_sc/src/drivers/mcg\mcg.c ****       (!(MCG_C2 & MCG_C2_LP_MASK))))                                  // check MCG_C2[LP] bit is no
 1422              		.loc 1 348 0
 1423 003e 724B     		ldr	r3, .L131
 1424 0040 5B78     		ldrb	r3, [r3, #1]
 1425 0042 DBB2     		uxtb	r3, r3
 1426 0044 1A1C     		mov	r2, r3
 1427 0046 0223     		mov	r3, #2
 1428 0048 1340     		and	r3, r2
 345:C:/Users/b01252/Documents/Freescale/L4K/software/kinetis_kl46_sc/src/drivers/mcg\mcg.c ****   if (!((((MCG_S & MCG_S_CLKST_MASK) >> MCG_S_CLKST_SHIFT) == 0x2) && // check CLKS mux has selcted
 1429              		.loc 1 345 0
 1430 004a 01D0     		beq	.L109
 1431              	.L108:
 349:C:/Users/b01252/Documents/Freescale/L4K/software/kinetis_kl46_sc/src/drivers/mcg\mcg.c ****   {
 350:C:/Users/b01252/Documents/Freescale/L4K/software/kinetis_kl46_sc/src/drivers/mcg\mcg.c ****     return 0x4;                                                       // return error code
 1432              		.loc 1 350 0
 1433 004c 0423     		mov	r3, #4
 1434 004e D6E0     		b	.L110
 1435              	.L109:
 351:C:/Users/b01252/Documents/Freescale/L4K/software/kinetis_kl46_sc/src/drivers/mcg\mcg.c ****   }
 352:C:/Users/b01252/Documents/Freescale/L4K/software/kinetis_kl46_sc/src/drivers/mcg\mcg.c ****   
 353:C:/Users/b01252/Documents/Freescale/L4K/software/kinetis_kl46_sc/src/drivers/mcg\mcg.c **** // As the external frequency has already been checked when FBE mode was enterred it is not checked 
 354:C:/Users/b01252/Documents/Freescale/L4K/software/kinetis_kl46_sc/src/drivers/mcg\mcg.c **** 
 355:C:/Users/b01252/Documents/Freescale/L4K/software/kinetis_kl46_sc/src/drivers/mcg\mcg.c **** // Check PLL divider settings are within spec.
 356:C:/Users/b01252/Documents/Freescale/L4K/software/kinetis_kl46_sc/src/drivers/mcg\mcg.c ****   if ((prdiv_val < 1) || (prdiv_val > 25)) {return 0x41;}
 1436              		.loc 1 356 0
 1437 0050 FB1C     		add	r3, r7, #3
 1438 0052 1B78     		ldrb	r3, [r3]
 1439 0054 5BB2     		sxtb	r3, r3
 1440 0056 002B     		cmp	r3, #0
 1441 0058 04DD     		ble	.L111
 1442              		.loc 1 356 0 is_stmt 0
 1443 005a FB1C     		add	r3, r7, #3
 1444 005c 1B78     		ldrb	r3, [r3]
 1445 005e 5BB2     		sxtb	r3, r3
 1446 0060 192B     		cmp	r3, #25
 1447 0062 01DD     		ble	.L112
 1448              	.L111:
 1449              		.loc 1 356 0
 1450 0064 4123     		mov	r3, #65
 1451 0066 CAE0     		b	.L110
 1452              	.L112:
 357:C:/Users/b01252/Documents/Freescale/L4K/software/kinetis_kl46_sc/src/drivers/mcg\mcg.c ****   if ((vdiv_val < 24) || (vdiv_val > 50)) {return 0x42;} 
 1453              		.loc 1 357 0 is_stmt 1
 1454 0068 BB1C     		add	r3, r7, #2
 1455 006a 1B78     		ldrb	r3, [r3]
 1456 006c 5BB2     		sxtb	r3, r3
 1457 006e 172B     		cmp	r3, #23
 1458 0070 04DD     		ble	.L113
 1459              		.loc 1 357 0 is_stmt 0
 1460 0072 BB1C     		add	r3, r7, #2
 1461 0074 1B78     		ldrb	r3, [r3]
 1462 0076 5BB2     		sxtb	r3, r3
 1463 0078 322B     		cmp	r3, #50
 1464 007a 01DD     		ble	.L114
 1465              	.L113:
 1466              		.loc 1 357 0
 1467 007c 4223     		mov	r3, #66
 1468 007e BEE0     		b	.L110
 1469              	.L114:
 358:C:/Users/b01252/Documents/Freescale/L4K/software/kinetis_kl46_sc/src/drivers/mcg\mcg.c ****   
 359:C:/Users/b01252/Documents/Freescale/L4K/software/kinetis_kl46_sc/src/drivers/mcg\mcg.c **** // Check PLL reference clock frequency is within spec.
 360:C:/Users/b01252/Documents/Freescale/L4K/software/kinetis_kl46_sc/src/drivers/mcg\mcg.c ****   if (((crystal_val / prdiv_val) < 2000000) || ((crystal_val / prdiv_val) > 4000000)) {return 0x43;
 1470              		.loc 1 360 0 is_stmt 1
 1471 0080 FB1C     		add	r3, r7, #3
 1472 0082 1B78     		ldrb	r3, [r3]
 1473 0084 5BB2     		sxtb	r3, r3
 1474 0086 7868     		ldr	r0, [r7, #4]
 1475 0088 191C     		mov	r1, r3
 1476 008a FFF7FEFF 		bl	__aeabi_idiv
 1477 008e 031C     		mov	r3, r0
 1478 0090 1A1C     		mov	r2, r3
 1479 0092 5E4B     		ldr	r3, .L131+4
 1480 0094 9A42     		cmp	r2, r3
 1481 0096 0BDD     		ble	.L115
 1482              		.loc 1 360 0 is_stmt 0
 1483 0098 FB1C     		add	r3, r7, #3
 1484 009a 1B78     		ldrb	r3, [r3]
 1485 009c 5BB2     		sxtb	r3, r3
 1486 009e 7868     		ldr	r0, [r7, #4]
 1487 00a0 191C     		mov	r1, r3
 1488 00a2 FFF7FEFF 		bl	__aeabi_idiv
 1489 00a6 031C     		mov	r3, r0
 1490 00a8 1A1C     		mov	r2, r3
 1491 00aa 594B     		ldr	r3, .L131+8
 1492 00ac 9A42     		cmp	r2, r3
 1493 00ae 01DD     		ble	.L116
 1494              	.L115:
 1495              		.loc 1 360 0
 1496 00b0 4323     		mov	r3, #67
 1497 00b2 A4E0     		b	.L110
 1498              	.L116:
 361:C:/Users/b01252/Documents/Freescale/L4K/software/kinetis_kl46_sc/src/drivers/mcg\mcg.c ****        
 362:C:/Users/b01252/Documents/Freescale/L4K/software/kinetis_kl46_sc/src/drivers/mcg\mcg.c **** // Check PLL output frequency is within spec.
 363:C:/Users/b01252/Documents/Freescale/L4K/software/kinetis_kl46_sc/src/drivers/mcg\mcg.c ****   pll_freq = (crystal_val / prdiv_val) * vdiv_val;
 1499              		.loc 1 363 0 is_stmt 1
 1500 00b4 FB1C     		add	r3, r7, #3
 1501 00b6 1B78     		ldrb	r3, [r3]
 1502 00b8 5BB2     		sxtb	r3, r3
 1503 00ba 7868     		ldr	r0, [r7, #4]
 1504 00bc 191C     		mov	r1, r3
 1505 00be FFF7FEFF 		bl	__aeabi_idiv
 1506 00c2 031C     		mov	r3, r0
 1507 00c4 BA1C     		add	r2, r7, #2
 1508 00c6 1278     		ldrb	r2, [r2]
 1509 00c8 52B2     		sxtb	r2, r2
 1510 00ca 5343     		mul	r3, r2
 1511 00cc 3B61     		str	r3, [r7, #16]
 364:C:/Users/b01252/Documents/Freescale/L4K/software/kinetis_kl46_sc/src/drivers/mcg\mcg.c ****   if ((pll_freq < 48000000) || (pll_freq > 100000000)) {return 0x45;}
 1512              		.loc 1 364 0
 1513 00ce 3A69     		ldr	r2, [r7, #16]
 1514 00d0 504B     		ldr	r3, .L131+12
 1515 00d2 9A42     		cmp	r2, r3
 1516 00d4 03DD     		ble	.L117
 1517              		.loc 1 364 0 is_stmt 0
 1518 00d6 3A69     		ldr	r2, [r7, #16]
 1519 00d8 4F4B     		ldr	r3, .L131+16
 1520 00da 9A42     		cmp	r2, r3
 1521 00dc 01DD     		ble	.L118
 1522              	.L117:
 1523              		.loc 1 364 0
 1524 00de 4523     		mov	r3, #69
 1525 00e0 8DE0     		b	.L110
 1526              	.L118:
 365:C:/Users/b01252/Documents/Freescale/L4K/software/kinetis_kl46_sc/src/drivers/mcg\mcg.c **** 
 366:C:/Users/b01252/Documents/Freescale/L4K/software/kinetis_kl46_sc/src/drivers/mcg\mcg.c ****   // Configure MCG_C5
 367:C:/Users/b01252/Documents/Freescale/L4K/software/kinetis_kl46_sc/src/drivers/mcg\mcg.c ****   // If the PLL is to run in STOP mode then the PLLSTEN bit needs to be OR'ed in here or in user co
 368:C:/Users/b01252/Documents/Freescale/L4K/software/kinetis_kl46_sc/src/drivers/mcg\mcg.c ****   temp_reg = MCG_C5;
 1527              		.loc 1 368 0 is_stmt 1
 1528 00e2 494A     		ldr	r2, .L131
 1529 00e4 3B1C     		mov	r3, r7
 1530 00e6 0F33     		add	r3, r3, #15
 1531 00e8 1279     		ldrb	r2, [r2, #4]
 1532 00ea 1A70     		strb	r2, [r3]
 369:C:/Users/b01252/Documents/Freescale/L4K/software/kinetis_kl46_sc/src/drivers/mcg\mcg.c ****   temp_reg &= ~MCG_C5_PRDIV0_MASK;
 1533              		.loc 1 369 0
 1534 00ec 3B1C     		mov	r3, r7
 1535 00ee 0F33     		add	r3, r3, #15
 1536 00f0 3A1C     		mov	r2, r7
 1537 00f2 0F32     		add	r2, r2, #15
 1538 00f4 1278     		ldrb	r2, [r2]
 1539 00f6 1F21     		mov	r1, #31
 1540 00f8 8A43     		bic	r2, r1
 1541 00fa 1A70     		strb	r2, [r3]
 370:C:/Users/b01252/Documents/Freescale/L4K/software/kinetis_kl46_sc/src/drivers/mcg\mcg.c ****   temp_reg |= MCG_C5_PRDIV0(prdiv_val - 1);    //set PLL ref divider
 1542              		.loc 1 370 0
 1543 00fc FB1C     		add	r3, r7, #3
 1544 00fe 1B78     		ldrb	r3, [r3]
 1545 0100 013B     		sub	r3, r3, #1
 1546 0102 DAB2     		uxtb	r2, r3
 1547 0104 1F23     		mov	r3, #31
 1548 0106 1340     		and	r3, r2
 1549 0108 D9B2     		uxtb	r1, r3
 1550 010a 3B1C     		mov	r3, r7
 1551 010c 0F33     		add	r3, r3, #15
 1552 010e 3A1C     		mov	r2, r7
 1553 0110 0F32     		add	r2, r2, #15
 1554 0112 1278     		ldrb	r2, [r2]
 1555 0114 0A43     		orr	r2, r1
 1556 0116 1A70     		strb	r2, [r3]
 371:C:/Users/b01252/Documents/Freescale/L4K/software/kinetis_kl46_sc/src/drivers/mcg\mcg.c ****   MCG_C5 = temp_reg;
 1557              		.loc 1 371 0
 1558 0118 3B4B     		ldr	r3, .L131
 1559 011a 3A1C     		mov	r2, r7
 1560 011c 0F32     		add	r2, r2, #15
 1561 011e 1278     		ldrb	r2, [r2]
 1562 0120 1A71     		strb	r2, [r3, #4]
 372:C:/Users/b01252/Documents/Freescale/L4K/software/kinetis_kl46_sc/src/drivers/mcg\mcg.c **** 
 373:C:/Users/b01252/Documents/Freescale/L4K/software/kinetis_kl46_sc/src/drivers/mcg\mcg.c ****   // Configure MCG_C6
 374:C:/Users/b01252/Documents/Freescale/L4K/software/kinetis_kl46_sc/src/drivers/mcg\mcg.c ****   // The PLLS bit is set to enable the PLL, MCGOUT still sourced from ext ref clk 
 375:C:/Users/b01252/Documents/Freescale/L4K/software/kinetis_kl46_sc/src/drivers/mcg\mcg.c ****   // The clock monitor is not enabled here as it has likely been enabled previously and so the valu
 376:C:/Users/b01252/Documents/Freescale/L4K/software/kinetis_kl46_sc/src/drivers/mcg\mcg.c ****   // is not altered here.
 377:C:/Users/b01252/Documents/Freescale/L4K/software/kinetis_kl46_sc/src/drivers/mcg\mcg.c ****   // The loss of lock interrupt can be enabled by seperately OR'ing in the LOLIE bit in MCG_C6
 378:C:/Users/b01252/Documents/Freescale/L4K/software/kinetis_kl46_sc/src/drivers/mcg\mcg.c ****   temp_reg = MCG_C6; // store present C6 value
 1563              		.loc 1 378 0
 1564 0122 394A     		ldr	r2, .L131
 1565 0124 3B1C     		mov	r3, r7
 1566 0126 0F33     		add	r3, r3, #15
 1567 0128 5279     		ldrb	r2, [r2, #5]
 1568 012a 1A70     		strb	r2, [r3]
 379:C:/Users/b01252/Documents/Freescale/L4K/software/kinetis_kl46_sc/src/drivers/mcg\mcg.c ****   temp_reg &= ~MCG_C6_VDIV0_MASK; // clear VDIV settings
 1569              		.loc 1 379 0
 1570 012c 3B1C     		mov	r3, r7
 1571 012e 0F33     		add	r3, r3, #15
 1572 0130 3A1C     		mov	r2, r7
 1573 0132 0F32     		add	r2, r2, #15
 1574 0134 1278     		ldrb	r2, [r2]
 1575 0136 1F21     		mov	r1, #31
 1576 0138 8A43     		bic	r2, r1
 1577 013a 1A70     		strb	r2, [r3]
 380:C:/Users/b01252/Documents/Freescale/L4K/software/kinetis_kl46_sc/src/drivers/mcg\mcg.c ****   temp_reg |= MCG_C6_PLLS_MASK | MCG_C6_VDIV0(vdiv_val - 24); // write new VDIV and enable PLL
 1578              		.loc 1 380 0
 1579 013c BB1C     		add	r3, r7, #2
 1580 013e 1B78     		ldrb	r3, [r3]
 1581 0140 183B     		sub	r3, r3, #24
 1582 0142 DAB2     		uxtb	r2, r3
 1583 0144 1F23     		mov	r3, #31
 1584 0146 1340     		and	r3, r2
 1585 0148 DAB2     		uxtb	r2, r3
 1586 014a 3B1C     		mov	r3, r7
 1587 014c 0F33     		add	r3, r3, #15
 1588 014e 1B78     		ldrb	r3, [r3]
 1589 0150 1343     		orr	r3, r2
 1590 0152 DAB2     		uxtb	r2, r3
 1591 0154 3B1C     		mov	r3, r7
 1592 0156 0F33     		add	r3, r3, #15
 1593 0158 4021     		mov	r1, #64
 1594 015a 0A43     		orr	r2, r1
 1595 015c 1A70     		strb	r2, [r3]
 381:C:/Users/b01252/Documents/Freescale/L4K/software/kinetis_kl46_sc/src/drivers/mcg\mcg.c ****   MCG_C6 = temp_reg; // update MCG_C6
 1596              		.loc 1 381 0
 1597 015e 2A4B     		ldr	r3, .L131
 1598 0160 3A1C     		mov	r2, r7
 1599 0162 0F32     		add	r2, r2, #15
 1600 0164 1278     		ldrb	r2, [r2]
 1601 0166 5A71     		strb	r2, [r3, #5]
 382:C:/Users/b01252/Documents/Freescale/L4K/software/kinetis_kl46_sc/src/drivers/mcg\mcg.c ****   
 383:C:/Users/b01252/Documents/Freescale/L4K/software/kinetis_kl46_sc/src/drivers/mcg\mcg.c ****   // wait for PLLST status bit to set
 384:C:/Users/b01252/Documents/Freescale/L4K/software/kinetis_kl46_sc/src/drivers/mcg\mcg.c ****   for (i = 0 ; i < 2000 ; i++)
 1602              		.loc 1 384 0
 1603 0168 3B1C     		mov	r3, r7
 1604 016a 1633     		add	r3, r3, #22
 1605 016c 0022     		mov	r2, #0
 1606 016e 1A80     		strh	r2, [r3]
 1607 0170 0DE0     		b	.L119
 1608              	.L122:
 385:C:/Users/b01252/Documents/Freescale/L4K/software/kinetis_kl46_sc/src/drivers/mcg\mcg.c ****   {
 386:C:/Users/b01252/Documents/Freescale/L4K/software/kinetis_kl46_sc/src/drivers/mcg\mcg.c ****     if (MCG_S & MCG_S_PLLST_MASK) break; // jump out early if PLLST sets before loop finishes
 1609              		.loc 1 386 0
 1610 0172 254B     		ldr	r3, .L131
 1611 0174 9B79     		ldrb	r3, [r3, #6]
 1612 0176 DBB2     		uxtb	r3, r3
 1613 0178 1A1C     		mov	r2, r3
 1614 017a 2023     		mov	r3, #32
 1615 017c 1340     		and	r3, r2
 1616 017e 0ED1     		bne	.L129
 1617              	.L120:
 384:C:/Users/b01252/Documents/Freescale/L4K/software/kinetis_kl46_sc/src/drivers/mcg\mcg.c ****   for (i = 0 ; i < 2000 ; i++)
 1618              		.loc 1 384 0
 1619 0180 3B1C     		mov	r3, r7
 1620 0182 1633     		add	r3, r3, #22
 1621 0184 3A1C     		mov	r2, r7
 1622 0186 1632     		add	r2, r2, #22
 1623 0188 1288     		ldrh	r2, [r2]
 1624 018a 0132     		add	r2, r2, #1
 1625 018c 1A80     		strh	r2, [r3]
 1626              	.L119:
 384:C:/Users/b01252/Documents/Freescale/L4K/software/kinetis_kl46_sc/src/drivers/mcg\mcg.c ****   for (i = 0 ; i < 2000 ; i++)
 1627              		.loc 1 384 0 is_stmt 0
 1628 018e 3B1C     		mov	r3, r7
 1629 0190 1633     		add	r3, r3, #22
 1630 0192 0021     		mov	r1, #0
 1631 0194 5A5E     		ldrsh	r2, [r3, r1]
 1632 0196 214B     		ldr	r3, .L131+20
 1633 0198 9A42     		cmp	r2, r3
 1634 019a EADD     		ble	.L122
 1635 019c 00E0     		b	.L121
 1636              	.L129:
 1637              		.loc 1 386 0 is_stmt 1
 1638 019e C046     		mov	r8, r8
 1639              	.L121:
 387:C:/Users/b01252/Documents/Freescale/L4K/software/kinetis_kl46_sc/src/drivers/mcg\mcg.c ****   }
 388:C:/Users/b01252/Documents/Freescale/L4K/software/kinetis_kl46_sc/src/drivers/mcg\mcg.c ****   if (!(MCG_S & MCG_S_PLLST_MASK)) return 0x16; // check bit is really set and return with error if
 1640              		.loc 1 388 0
 1641 01a0 194B     		ldr	r3, .L131
 1642 01a2 9B79     		ldrb	r3, [r3, #6]
 1643 01a4 DBB2     		uxtb	r3, r3
 1644 01a6 1A1C     		mov	r2, r3
 1645 01a8 2023     		mov	r3, #32
 1646 01aa 1340     		and	r3, r2
 1647 01ac 01D1     		bne	.L123
 1648              		.loc 1 388 0 is_stmt 0
 1649 01ae 1623     		mov	r3, #22
 1650 01b0 25E0     		b	.L110
 1651              	.L123:
 389:C:/Users/b01252/Documents/Freescale/L4K/software/kinetis_kl46_sc/src/drivers/mcg\mcg.c **** 
 390:C:/Users/b01252/Documents/Freescale/L4K/software/kinetis_kl46_sc/src/drivers/mcg\mcg.c ****   // Wait for LOCK bit to set
 391:C:/Users/b01252/Documents/Freescale/L4K/software/kinetis_kl46_sc/src/drivers/mcg\mcg.c ****   for (i = 0 ; i < 2000 ; i++)
 1652              		.loc 1 391 0 is_stmt 1
 1653 01b2 3B1C     		mov	r3, r7
 1654 01b4 1633     		add	r3, r3, #22
 1655 01b6 0022     		mov	r2, #0
 1656 01b8 1A80     		strh	r2, [r3]
 1657 01ba 0DE0     		b	.L124
 1658              	.L127:
 392:C:/Users/b01252/Documents/Freescale/L4K/software/kinetis_kl46_sc/src/drivers/mcg\mcg.c ****   {
 393:C:/Users/b01252/Documents/Freescale/L4K/software/kinetis_kl46_sc/src/drivers/mcg\mcg.c ****     if (MCG_S & MCG_S_LOCK0_MASK) break; // jump out early if LOCK sets before loop finishes
 1659              		.loc 1 393 0
 1660 01bc 124B     		ldr	r3, .L131
 1661 01be 9B79     		ldrb	r3, [r3, #6]
 1662 01c0 DBB2     		uxtb	r3, r3
 1663 01c2 1A1C     		mov	r2, r3
 1664 01c4 4023     		mov	r3, #64
 1665 01c6 1340     		and	r3, r2
 1666 01c8 0ED1     		bne	.L130
 1667              	.L125:
 391:C:/Users/b01252/Documents/Freescale/L4K/software/kinetis_kl46_sc/src/drivers/mcg\mcg.c ****   for (i = 0 ; i < 2000 ; i++)
 1668              		.loc 1 391 0
 1669 01ca 3B1C     		mov	r3, r7
 1670 01cc 1633     		add	r3, r3, #22
 1671 01ce 3A1C     		mov	r2, r7
 1672 01d0 1632     		add	r2, r2, #22
 1673 01d2 1288     		ldrh	r2, [r2]
 1674 01d4 0132     		add	r2, r2, #1
 1675 01d6 1A80     		strh	r2, [r3]
 1676              	.L124:
 391:C:/Users/b01252/Documents/Freescale/L4K/software/kinetis_kl46_sc/src/drivers/mcg\mcg.c ****   for (i = 0 ; i < 2000 ; i++)
 1677              		.loc 1 391 0 is_stmt 0
 1678 01d8 3B1C     		mov	r3, r7
 1679 01da 1633     		add	r3, r3, #22
 1680 01dc 0021     		mov	r1, #0
 1681 01de 5A5E     		ldrsh	r2, [r3, r1]
 1682 01e0 0E4B     		ldr	r3, .L131+20
 1683 01e2 9A42     		cmp	r2, r3
 1684 01e4 EADD     		ble	.L127
 1685 01e6 00E0     		b	.L126
 1686              	.L130:
 1687              		.loc 1 393 0 is_stmt 1
 1688 01e8 C046     		mov	r8, r8
 1689              	.L126:
 394:C:/Users/b01252/Documents/Freescale/L4K/software/kinetis_kl46_sc/src/drivers/mcg\mcg.c ****   }
 395:C:/Users/b01252/Documents/Freescale/L4K/software/kinetis_kl46_sc/src/drivers/mcg\mcg.c ****   if (!(MCG_S & MCG_S_LOCK0_MASK)) return 0x44; // check bit is really set and return with error if
 1690              		.loc 1 395 0
 1691 01ea 074B     		ldr	r3, .L131
 1692 01ec 9B79     		ldrb	r3, [r3, #6]
 1693 01ee DBB2     		uxtb	r3, r3
 1694 01f0 1A1C     		mov	r2, r3
 1695 01f2 4023     		mov	r3, #64
 1696 01f4 1340     		and	r3, r2
 1697 01f6 01D1     		bne	.L128
 1698              		.loc 1 395 0 is_stmt 0
 1699 01f8 4423     		mov	r3, #68
 1700 01fa 00E0     		b	.L110
 1701              	.L128:
 396:C:/Users/b01252/Documents/Freescale/L4K/software/kinetis_kl46_sc/src/drivers/mcg\mcg.c ****     
 397:C:/Users/b01252/Documents/Freescale/L4K/software/kinetis_kl46_sc/src/drivers/mcg\mcg.c **** // now in PBE 
 398:C:/Users/b01252/Documents/Freescale/L4K/software/kinetis_kl46_sc/src/drivers/mcg\mcg.c ****   return crystal_val; // MCGOUT frequency equals external clock frequency
 1702              		.loc 1 398 0 is_stmt 1
 1703 01fc 7B68     		ldr	r3, [r7, #4]
 1704              	.L110:
 399:C:/Users/b01252/Documents/Freescale/L4K/software/kinetis_kl46_sc/src/drivers/mcg\mcg.c **** } // fbe_pbe
 1705              		.loc 1 399 0
 1706 01fe 181C     		mov	r0, r3
 1707 0200 BD46     		mov	sp, r7
 1708 0202 06B0     		add	sp, sp, #24
 1709              		@ sp needed for prologue
 1710 0204 80BD     		pop	{r7, pc}
 1711              	.L132:
 1712 0206 C046     		.align	2
 1713              	.L131:
 1714 0208 00400640 		.word	1074151424
 1715 020c 7F841E00 		.word	1999999
 1716 0210 00093D00 		.word	4000000
 1717 0214 FF6BDC02 		.word	47999999
 1718 0218 00E1F505 		.word	100000000
 1719 021c CF070000 		.word	1999
 1720              		.cfi_endproc
 1721              	.LFE4:
 1723              		.section	.text.pbe_blpe,"ax",%progbits
 1724              		.align	2
 1725              		.global	pbe_blpe
 1726              		.code	16
 1727              		.thumb_func
 1729              	pbe_blpe:
 1730              	.LFB5:
 400:C:/Users/b01252/Documents/Freescale/L4K/software/kinetis_kl46_sc/src/drivers/mcg\mcg.c **** 
 401:C:/Users/b01252/Documents/Freescale/L4K/software/kinetis_kl46_sc/src/drivers/mcg\mcg.c **** 
 402:C:/Users/b01252/Documents/Freescale/L4K/software/kinetis_kl46_sc/src/drivers/mcg\mcg.c **** int pbe_blpe(int crystal_val)
 403:C:/Users/b01252/Documents/Freescale/L4K/software/kinetis_kl46_sc/src/drivers/mcg\mcg.c **** {
 1731              		.loc 1 403 0
 1732              		.cfi_startproc
 1733 0000 80B5     		push	{r7, lr}
 1734              	.LCFI15:
 1735              		.cfi_def_cfa_offset 8
 1736              		.cfi_offset 7, -8
 1737              		.cfi_offset 14, -4
 1738 0002 82B0     		sub	sp, sp, #8
 1739              	.LCFI16:
 1740              		.cfi_def_cfa_offset 16
 1741 0004 00AF     		add	r7, sp, #0
 1742              	.LCFI17:
 1743              		.cfi_def_cfa_register 7
 1744 0006 7860     		str	r0, [r7, #4]
 404:C:/Users/b01252/Documents/Freescale/L4K/software/kinetis_kl46_sc/src/drivers/mcg\mcg.c **** // Check MCG is in PBE mode
 405:C:/Users/b01252/Documents/Freescale/L4K/software/kinetis_kl46_sc/src/drivers/mcg\mcg.c ****   if (!((((MCG_S & MCG_S_CLKST_MASK) >> MCG_S_CLKST_SHIFT) == 0x2) && // check CLKS mux has selcted
 1745              		.loc 1 405 0
 1746 0008 164B     		ldr	r3, .L137
 1747 000a 9B79     		ldrb	r3, [r3, #6]
 1748 000c DBB2     		uxtb	r3, r3
 1749 000e 1A1C     		mov	r2, r3
 1750 0010 0C23     		mov	r3, #12
 1751 0012 1340     		and	r3, r2
 1752 0014 9B08     		lsr	r3, r3, #2
 1753 0016 022B     		cmp	r3, #2
 1754 0018 14D1     		bne	.L134
 406:C:/Users/b01252/Documents/Freescale/L4K/software/kinetis_kl46_sc/src/drivers/mcg\mcg.c ****       (!(MCG_S & MCG_S_IREFST_MASK)) &&                               // check FLL ref is external 
 1755              		.loc 1 406 0
 1756 001a 124B     		ldr	r3, .L137
 1757 001c 9B79     		ldrb	r3, [r3, #6]
 1758 001e DBB2     		uxtb	r3, r3
 1759 0020 1A1C     		mov	r2, r3
 1760 0022 1023     		mov	r3, #16
 1761 0024 1340     		and	r3, r2
 405:C:/Users/b01252/Documents/Freescale/L4K/software/kinetis_kl46_sc/src/drivers/mcg\mcg.c ****   if (!((((MCG_S & MCG_S_CLKST_MASK) >> MCG_S_CLKST_SHIFT) == 0x2) && // check CLKS mux has selcted
 1762              		.loc 1 405 0
 1763 0026 0DD1     		bne	.L134
 407:C:/Users/b01252/Documents/Freescale/L4K/software/kinetis_kl46_sc/src/drivers/mcg\mcg.c ****       (MCG_S & MCG_S_PLLST_MASK) &&                                   // check PLLS mux has selecte
 1764              		.loc 1 407 0
 1765 0028 0E4B     		ldr	r3, .L137
 1766 002a 9B79     		ldrb	r3, [r3, #6]
 1767 002c DBB2     		uxtb	r3, r3
 1768 002e 1A1C     		mov	r2, r3
 1769 0030 2023     		mov	r3, #32
 1770 0032 1340     		and	r3, r2
 406:C:/Users/b01252/Documents/Freescale/L4K/software/kinetis_kl46_sc/src/drivers/mcg\mcg.c ****       (!(MCG_S & MCG_S_IREFST_MASK)) &&                               // check FLL ref is external 
 1771              		.loc 1 406 0
 1772 0034 06D0     		beq	.L134
 408:C:/Users/b01252/Documents/Freescale/L4K/software/kinetis_kl46_sc/src/drivers/mcg\mcg.c ****       (!(MCG_C2 & MCG_C2_LP_MASK))))                                  // check MCG_C2[LP] bit is no
 1773              		.loc 1 408 0
 1774 0036 0B4B     		ldr	r3, .L137
 1775 0038 5B78     		ldrb	r3, [r3, #1]
 1776 003a DBB2     		uxtb	r3, r3
 1777 003c 1A1C     		mov	r2, r3
 1778 003e 0223     		mov	r3, #2
 1779 0040 1340     		and	r3, r2
 405:C:/Users/b01252/Documents/Freescale/L4K/software/kinetis_kl46_sc/src/drivers/mcg\mcg.c ****   if (!((((MCG_S & MCG_S_CLKST_MASK) >> MCG_S_CLKST_SHIFT) == 0x2) && // check CLKS mux has selcted
 1780              		.loc 1 405 0
 1781 0042 01D0     		beq	.L135
 1782              	.L134:
 409:C:/Users/b01252/Documents/Freescale/L4K/software/kinetis_kl46_sc/src/drivers/mcg\mcg.c ****   {
 410:C:/Users/b01252/Documents/Freescale/L4K/software/kinetis_kl46_sc/src/drivers/mcg\mcg.c ****     return 0x7;                                                       // return error code
 1783              		.loc 1 410 0
 1784 0044 0723     		mov	r3, #7
 1785 0046 08E0     		b	.L136
 1786              	.L135:
 411:C:/Users/b01252/Documents/Freescale/L4K/software/kinetis_kl46_sc/src/drivers/mcg\mcg.c ****   }
 412:C:/Users/b01252/Documents/Freescale/L4K/software/kinetis_kl46_sc/src/drivers/mcg\mcg.c ****   
 413:C:/Users/b01252/Documents/Freescale/L4K/software/kinetis_kl46_sc/src/drivers/mcg\mcg.c **** // To enter BLPE mode the LP bit must be set, disabling the PLL  
 414:C:/Users/b01252/Documents/Freescale/L4K/software/kinetis_kl46_sc/src/drivers/mcg\mcg.c ****   MCG_C2 |= MCG_C2_LP_MASK;
 1787              		.loc 1 414 0
 1788 0048 064B     		ldr	r3, .L137
 1789 004a 064A     		ldr	r2, .L137
 1790 004c 5278     		ldrb	r2, [r2, #1]
 1791 004e D2B2     		uxtb	r2, r2
 1792 0050 0221     		mov	r1, #2
 1793 0052 0A43     		orr	r2, r1
 1794 0054 D2B2     		uxtb	r2, r2
 1795 0056 5A70     		strb	r2, [r3, #1]
 415:C:/Users/b01252/Documents/Freescale/L4K/software/kinetis_kl46_sc/src/drivers/mcg\mcg.c ****   
 416:C:/Users/b01252/Documents/Freescale/L4K/software/kinetis_kl46_sc/src/drivers/mcg\mcg.c **** // Now in BLPE mode
 417:C:/Users/b01252/Documents/Freescale/L4K/software/kinetis_kl46_sc/src/drivers/mcg\mcg.c ****   return crystal_val;  
 1796              		.loc 1 417 0
 1797 0058 7B68     		ldr	r3, [r7, #4]
 1798              	.L136:
 418:C:/Users/b01252/Documents/Freescale/L4K/software/kinetis_kl46_sc/src/drivers/mcg\mcg.c **** } // pbe_blpe
 1799              		.loc 1 418 0
 1800 005a 181C     		mov	r0, r3
 1801 005c BD46     		mov	sp, r7
 1802 005e 02B0     		add	sp, sp, #8
 1803              		@ sp needed for prologue
 1804 0060 80BD     		pop	{r7, pc}
 1805              	.L138:
 1806 0062 C046     		.align	2
 1807              	.L137:
 1808 0064 00400640 		.word	1074151424
 1809              		.cfi_endproc
 1810              	.LFE5:
 1812              		.section	.text.blpe_pbe,"ax",%progbits
 1813              		.align	2
 1814              		.global	blpe_pbe
 1815              		.code	16
 1816              		.thumb_func
 1818              	blpe_pbe:
 1819              	.LFB6:
 419:C:/Users/b01252/Documents/Freescale/L4K/software/kinetis_kl46_sc/src/drivers/mcg\mcg.c **** 
 420:C:/Users/b01252/Documents/Freescale/L4K/software/kinetis_kl46_sc/src/drivers/mcg\mcg.c **** 
 421:C:/Users/b01252/Documents/Freescale/L4K/software/kinetis_kl46_sc/src/drivers/mcg\mcg.c **** // ************************************************************************************************
 422:C:/Users/b01252/Documents/Freescale/L4K/software/kinetis_kl46_sc/src/drivers/mcg\mcg.c **** // Since PBE mode can be enterred via FBE -> BLPE modes, it cannot be assumed that the PLL has been
 423:C:/Users/b01252/Documents/Freescale/L4K/software/kinetis_kl46_sc/src/drivers/mcg\mcg.c **** // previously configured correctly. That is why this general purpose driver has the PLL settings as
 424:C:/Users/b01252/Documents/Freescale/L4K/software/kinetis_kl46_sc/src/drivers/mcg\mcg.c **** // passed parameters.
 425:C:/Users/b01252/Documents/Freescale/L4K/software/kinetis_kl46_sc/src/drivers/mcg\mcg.c **** // ************************************************************************************************
 426:C:/Users/b01252/Documents/Freescale/L4K/software/kinetis_kl46_sc/src/drivers/mcg\mcg.c **** int blpe_pbe(int crystal_val, signed char prdiv_val, signed char vdiv_val)
 427:C:/Users/b01252/Documents/Freescale/L4K/software/kinetis_kl46_sc/src/drivers/mcg\mcg.c **** {
 1820              		.loc 1 427 0
 1821              		.cfi_startproc
 1822 0000 80B5     		push	{r7, lr}
 1823              	.LCFI18:
 1824              		.cfi_def_cfa_offset 8
 1825              		.cfi_offset 7, -8
 1826              		.cfi_offset 14, -4
 1827 0002 84B0     		sub	sp, sp, #16
 1828              	.LCFI19:
 1829              		.cfi_def_cfa_offset 24
 1830 0004 00AF     		add	r7, sp, #0
 1831              	.LCFI20:
 1832              		.cfi_def_cfa_register 7
 1833 0006 7860     		str	r0, [r7, #4]
 1834 0008 FB1C     		add	r3, r7, #3
 1835 000a 1970     		strb	r1, [r3]
 1836 000c BB1C     		add	r3, r7, #2
 1837 000e 1A70     		strb	r2, [r3]
 428:C:/Users/b01252/Documents/Freescale/L4K/software/kinetis_kl46_sc/src/drivers/mcg\mcg.c ****   unsigned char temp_reg;
 429:C:/Users/b01252/Documents/Freescale/L4K/software/kinetis_kl46_sc/src/drivers/mcg\mcg.c ****   short i;
 430:C:/Users/b01252/Documents/Freescale/L4K/software/kinetis_kl46_sc/src/drivers/mcg\mcg.c ****   
 431:C:/Users/b01252/Documents/Freescale/L4K/software/kinetis_kl46_sc/src/drivers/mcg\mcg.c **** // Check MCG is in BLPE mode
 432:C:/Users/b01252/Documents/Freescale/L4K/software/kinetis_kl46_sc/src/drivers/mcg\mcg.c ****   if (!((((MCG_S & MCG_S_CLKST_MASK) >> MCG_S_CLKST_SHIFT) == 0x2) && // check CLKS mux has selcted
 1838              		.loc 1 432 0
 1839 0010 724B     		ldr	r3, .L161
 1840 0012 9B79     		ldrb	r3, [r3, #6]
 1841 0014 DBB2     		uxtb	r3, r3
 1842 0016 1A1C     		mov	r2, r3
 1843 0018 0C23     		mov	r3, #12
 1844 001a 1340     		and	r3, r2
 1845 001c 9B08     		lsr	r3, r3, #2
 1846 001e 022B     		cmp	r3, #2
 1847 0020 0DD1     		bne	.L140
 433:C:/Users/b01252/Documents/Freescale/L4K/software/kinetis_kl46_sc/src/drivers/mcg\mcg.c ****       (!(MCG_S & MCG_S_IREFST_MASK)) &&                               // check FLL ref is external 
 1848              		.loc 1 433 0
 1849 0022 6E4B     		ldr	r3, .L161
 1850 0024 9B79     		ldrb	r3, [r3, #6]
 1851 0026 DBB2     		uxtb	r3, r3
 1852 0028 1A1C     		mov	r2, r3
 1853 002a 1023     		mov	r3, #16
 1854 002c 1340     		and	r3, r2
 432:C:/Users/b01252/Documents/Freescale/L4K/software/kinetis_kl46_sc/src/drivers/mcg\mcg.c ****   if (!((((MCG_S & MCG_S_CLKST_MASK) >> MCG_S_CLKST_SHIFT) == 0x2) && // check CLKS mux has selcted
 1855              		.loc 1 432 0
 1856 002e 06D1     		bne	.L140
 434:C:/Users/b01252/Documents/Freescale/L4K/software/kinetis_kl46_sc/src/drivers/mcg\mcg.c ****       (MCG_C2 & MCG_C2_LP_MASK)))                                     // check MCG_C2[LP] bit is se
 1857              		.loc 1 434 0
 1858 0030 6A4B     		ldr	r3, .L161
 1859 0032 5B78     		ldrb	r3, [r3, #1]
 1860 0034 DBB2     		uxtb	r3, r3
 1861 0036 1A1C     		mov	r2, r3
 1862 0038 0223     		mov	r3, #2
 1863 003a 1340     		and	r3, r2
 432:C:/Users/b01252/Documents/Freescale/L4K/software/kinetis_kl46_sc/src/drivers/mcg\mcg.c ****   if (!((((MCG_S & MCG_S_CLKST_MASK) >> MCG_S_CLKST_SHIFT) == 0x2) && // check CLKS mux has selcted
 1864              		.loc 1 432 0
 1865 003c 01D1     		bne	.L141
 1866              	.L140:
 435:C:/Users/b01252/Documents/Freescale/L4K/software/kinetis_kl46_sc/src/drivers/mcg\mcg.c ****   {
 436:C:/Users/b01252/Documents/Freescale/L4K/software/kinetis_kl46_sc/src/drivers/mcg\mcg.c ****     return 0x6;                                                       // return error code
 1867              		.loc 1 436 0
 1868 003e 0623     		mov	r3, #6
 1869 0040 C7E0     		b	.L142
 1870              	.L141:
 437:C:/Users/b01252/Documents/Freescale/L4K/software/kinetis_kl46_sc/src/drivers/mcg\mcg.c ****   }
 438:C:/Users/b01252/Documents/Freescale/L4K/software/kinetis_kl46_sc/src/drivers/mcg\mcg.c ****   
 439:C:/Users/b01252/Documents/Freescale/L4K/software/kinetis_kl46_sc/src/drivers/mcg\mcg.c **** // As the external frequency has already been checked when FBE mode was enterred it is not checked 
 440:C:/Users/b01252/Documents/Freescale/L4K/software/kinetis_kl46_sc/src/drivers/mcg\mcg.c **** 
 441:C:/Users/b01252/Documents/Freescale/L4K/software/kinetis_kl46_sc/src/drivers/mcg\mcg.c **** // Check PLL divider settings are within spec.
 442:C:/Users/b01252/Documents/Freescale/L4K/software/kinetis_kl46_sc/src/drivers/mcg\mcg.c ****   if ((prdiv_val < 1) || (prdiv_val > 25)) {return 0x41;}
 1871              		.loc 1 442 0
 1872 0042 FB1C     		add	r3, r7, #3
 1873 0044 1B78     		ldrb	r3, [r3]
 1874 0046 5BB2     		sxtb	r3, r3
 1875 0048 002B     		cmp	r3, #0
 1876 004a 04DD     		ble	.L143
 1877              		.loc 1 442 0 is_stmt 0
 1878 004c FB1C     		add	r3, r7, #3
 1879 004e 1B78     		ldrb	r3, [r3]
 1880 0050 5BB2     		sxtb	r3, r3
 1881 0052 192B     		cmp	r3, #25
 1882 0054 01DD     		ble	.L144
 1883              	.L143:
 1884              		.loc 1 442 0
 1885 0056 4123     		mov	r3, #65
 1886 0058 BBE0     		b	.L142
 1887              	.L144:
 443:C:/Users/b01252/Documents/Freescale/L4K/software/kinetis_kl46_sc/src/drivers/mcg\mcg.c ****   if ((vdiv_val < 24) || (vdiv_val > 50)) {return 0x42;} 
 1888              		.loc 1 443 0 is_stmt 1
 1889 005a BB1C     		add	r3, r7, #2
 1890 005c 1B78     		ldrb	r3, [r3]
 1891 005e 5BB2     		sxtb	r3, r3
 1892 0060 172B     		cmp	r3, #23
 1893 0062 04DD     		ble	.L145
 1894              		.loc 1 443 0 is_stmt 0
 1895 0064 BB1C     		add	r3, r7, #2
 1896 0066 1B78     		ldrb	r3, [r3]
 1897 0068 5BB2     		sxtb	r3, r3
 1898 006a 322B     		cmp	r3, #50
 1899 006c 01DD     		ble	.L146
 1900              	.L145:
 1901              		.loc 1 443 0
 1902 006e 4223     		mov	r3, #66
 1903 0070 AFE0     		b	.L142
 1904              	.L146:
 444:C:/Users/b01252/Documents/Freescale/L4K/software/kinetis_kl46_sc/src/drivers/mcg\mcg.c ****   
 445:C:/Users/b01252/Documents/Freescale/L4K/software/kinetis_kl46_sc/src/drivers/mcg\mcg.c **** // Check PLL reference clock frequency is within spec.
 446:C:/Users/b01252/Documents/Freescale/L4K/software/kinetis_kl46_sc/src/drivers/mcg\mcg.c ****   if (((crystal_val / prdiv_val) < 2000000) || ((crystal_val / prdiv_val) > 4000000)) {return 0x43;
 1905              		.loc 1 446 0 is_stmt 1
 1906 0072 FB1C     		add	r3, r7, #3
 1907 0074 1B78     		ldrb	r3, [r3]
 1908 0076 5BB2     		sxtb	r3, r3
 1909 0078 7868     		ldr	r0, [r7, #4]
 1910 007a 191C     		mov	r1, r3
 1911 007c FFF7FEFF 		bl	__aeabi_idiv
 1912 0080 031C     		mov	r3, r0
 1913 0082 1A1C     		mov	r2, r3
 1914 0084 564B     		ldr	r3, .L161+4
 1915 0086 9A42     		cmp	r2, r3
 1916 0088 0BDD     		ble	.L147
 1917              		.loc 1 446 0 is_stmt 0
 1918 008a FB1C     		add	r3, r7, #3
 1919 008c 1B78     		ldrb	r3, [r3]
 1920 008e 5BB2     		sxtb	r3, r3
 1921 0090 7868     		ldr	r0, [r7, #4]
 1922 0092 191C     		mov	r1, r3
 1923 0094 FFF7FEFF 		bl	__aeabi_idiv
 1924 0098 031C     		mov	r3, r0
 1925 009a 1A1C     		mov	r2, r3
 1926 009c 514B     		ldr	r3, .L161+8
 1927 009e 9A42     		cmp	r2, r3
 1928 00a0 01DD     		ble	.L148
 1929              	.L147:
 1930              		.loc 1 446 0
 1931 00a2 4323     		mov	r3, #67
 1932 00a4 95E0     		b	.L142
 1933              	.L148:
 447:C:/Users/b01252/Documents/Freescale/L4K/software/kinetis_kl46_sc/src/drivers/mcg\mcg.c ****        
 448:C:/Users/b01252/Documents/Freescale/L4K/software/kinetis_kl46_sc/src/drivers/mcg\mcg.c **** // If PRDIV, VDIV and the PLL ref clock are in spec. then the PLL frequency is within spec.
 449:C:/Users/b01252/Documents/Freescale/L4K/software/kinetis_kl46_sc/src/drivers/mcg\mcg.c **** 
 450:C:/Users/b01252/Documents/Freescale/L4K/software/kinetis_kl46_sc/src/drivers/mcg\mcg.c **** // Configure MCG_C5
 451:C:/Users/b01252/Documents/Freescale/L4K/software/kinetis_kl46_sc/src/drivers/mcg\mcg.c **** // If the PLL is to run in STOP mode then the PLLSTEN bit needs to be OR'ed in here or in user code
 452:C:/Users/b01252/Documents/Freescale/L4K/software/kinetis_kl46_sc/src/drivers/mcg\mcg.c ****   temp_reg = MCG_C5;
 1934              		.loc 1 452 0 is_stmt 1
 1935 00a6 4D4A     		ldr	r2, .L161
 1936 00a8 3B1C     		mov	r3, r7
 1937 00aa 0D33     		add	r3, r3, #13
 1938 00ac 1279     		ldrb	r2, [r2, #4]
 1939 00ae 1A70     		strb	r2, [r3]
 453:C:/Users/b01252/Documents/Freescale/L4K/software/kinetis_kl46_sc/src/drivers/mcg\mcg.c ****   temp_reg &= ~MCG_C5_PRDIV0_MASK;
 1940              		.loc 1 453 0
 1941 00b0 3B1C     		mov	r3, r7
 1942 00b2 0D33     		add	r3, r3, #13
 1943 00b4 3A1C     		mov	r2, r7
 1944 00b6 0D32     		add	r2, r2, #13
 1945 00b8 1278     		ldrb	r2, [r2]
 1946 00ba 1F21     		mov	r1, #31
 1947 00bc 8A43     		bic	r2, r1
 1948 00be 1A70     		strb	r2, [r3]
 454:C:/Users/b01252/Documents/Freescale/L4K/software/kinetis_kl46_sc/src/drivers/mcg\mcg.c ****   temp_reg |= MCG_C5_PRDIV0(prdiv_val - 1);    //set PLL ref divider
 1949              		.loc 1 454 0
 1950 00c0 FB1C     		add	r3, r7, #3
 1951 00c2 1B78     		ldrb	r3, [r3]
 1952 00c4 013B     		sub	r3, r3, #1
 1953 00c6 DAB2     		uxtb	r2, r3
 1954 00c8 1F23     		mov	r3, #31
 1955 00ca 1340     		and	r3, r2
 1956 00cc D9B2     		uxtb	r1, r3
 1957 00ce 3B1C     		mov	r3, r7
 1958 00d0 0D33     		add	r3, r3, #13
 1959 00d2 3A1C     		mov	r2, r7
 1960 00d4 0D32     		add	r2, r2, #13
 1961 00d6 1278     		ldrb	r2, [r2]
 1962 00d8 0A43     		orr	r2, r1
 1963 00da 1A70     		strb	r2, [r3]
 455:C:/Users/b01252/Documents/Freescale/L4K/software/kinetis_kl46_sc/src/drivers/mcg\mcg.c ****   MCG_C5 = temp_reg;
 1964              		.loc 1 455 0
 1965 00dc 3F4B     		ldr	r3, .L161
 1966 00de 3A1C     		mov	r2, r7
 1967 00e0 0D32     		add	r2, r2, #13
 1968 00e2 1278     		ldrb	r2, [r2]
 1969 00e4 1A71     		strb	r2, [r3, #4]
 456:C:/Users/b01252/Documents/Freescale/L4K/software/kinetis_kl46_sc/src/drivers/mcg\mcg.c **** 
 457:C:/Users/b01252/Documents/Freescale/L4K/software/kinetis_kl46_sc/src/drivers/mcg\mcg.c **** // Configure MCG_C6
 458:C:/Users/b01252/Documents/Freescale/L4K/software/kinetis_kl46_sc/src/drivers/mcg\mcg.c **** // The PLLS bit is set to enable the PLL, MCGOUT still sourced from ext ref clk 
 459:C:/Users/b01252/Documents/Freescale/L4K/software/kinetis_kl46_sc/src/drivers/mcg\mcg.c **** // The clock monitor is not enabled here as it has likely been enabled previously and so the value 
 460:C:/Users/b01252/Documents/Freescale/L4K/software/kinetis_kl46_sc/src/drivers/mcg\mcg.c **** // is not altered here.
 461:C:/Users/b01252/Documents/Freescale/L4K/software/kinetis_kl46_sc/src/drivers/mcg\mcg.c **** // The loss of lock interrupt can be enabled by seperately OR'ing in the LOLIE bit in MCG_C6
 462:C:/Users/b01252/Documents/Freescale/L4K/software/kinetis_kl46_sc/src/drivers/mcg\mcg.c ****   temp_reg = MCG_C6; // store present C6 value
 1970              		.loc 1 462 0
 1971 00e6 3D4A     		ldr	r2, .L161
 1972 00e8 3B1C     		mov	r3, r7
 1973 00ea 0D33     		add	r3, r3, #13
 1974 00ec 5279     		ldrb	r2, [r2, #5]
 1975 00ee 1A70     		strb	r2, [r3]
 463:C:/Users/b01252/Documents/Freescale/L4K/software/kinetis_kl46_sc/src/drivers/mcg\mcg.c ****   temp_reg &= ~MCG_C6_VDIV0_MASK; // clear VDIV settings
 1976              		.loc 1 463 0
 1977 00f0 3B1C     		mov	r3, r7
 1978 00f2 0D33     		add	r3, r3, #13
 1979 00f4 3A1C     		mov	r2, r7
 1980 00f6 0D32     		add	r2, r2, #13
 1981 00f8 1278     		ldrb	r2, [r2]
 1982 00fa 1F21     		mov	r1, #31
 1983 00fc 8A43     		bic	r2, r1
 1984 00fe 1A70     		strb	r2, [r3]
 464:C:/Users/b01252/Documents/Freescale/L4K/software/kinetis_kl46_sc/src/drivers/mcg\mcg.c ****   temp_reg |= MCG_C6_PLLS_MASK | MCG_C6_VDIV0(vdiv_val - 24); // write new VDIV and enable PLL
 1985              		.loc 1 464 0
 1986 0100 BB1C     		add	r3, r7, #2
 1987 0102 1B78     		ldrb	r3, [r3]
 1988 0104 183B     		sub	r3, r3, #24
 1989 0106 DAB2     		uxtb	r2, r3
 1990 0108 1F23     		mov	r3, #31
 1991 010a 1340     		and	r3, r2
 1992 010c DAB2     		uxtb	r2, r3
 1993 010e 3B1C     		mov	r3, r7
 1994 0110 0D33     		add	r3, r3, #13
 1995 0112 1B78     		ldrb	r3, [r3]
 1996 0114 1343     		orr	r3, r2
 1997 0116 DAB2     		uxtb	r2, r3
 1998 0118 3B1C     		mov	r3, r7
 1999 011a 0D33     		add	r3, r3, #13
 2000 011c 4021     		mov	r1, #64
 2001 011e 0A43     		orr	r2, r1
 2002 0120 1A70     		strb	r2, [r3]
 465:C:/Users/b01252/Documents/Freescale/L4K/software/kinetis_kl46_sc/src/drivers/mcg\mcg.c ****   MCG_C6 = temp_reg; // update MCG_C6
 2003              		.loc 1 465 0
 2004 0122 2E4B     		ldr	r3, .L161
 2005 0124 3A1C     		mov	r2, r7
 2006 0126 0D32     		add	r2, r2, #13
 2007 0128 1278     		ldrb	r2, [r2]
 2008 012a 5A71     		strb	r2, [r3, #5]
 466:C:/Users/b01252/Documents/Freescale/L4K/software/kinetis_kl46_sc/src/drivers/mcg\mcg.c ****   
 467:C:/Users/b01252/Documents/Freescale/L4K/software/kinetis_kl46_sc/src/drivers/mcg\mcg.c **** // Now that PLL is configured, LP is cleared to enable the PLL
 468:C:/Users/b01252/Documents/Freescale/L4K/software/kinetis_kl46_sc/src/drivers/mcg\mcg.c ****   MCG_C2 &= ~MCG_C2_LP_MASK;
 2009              		.loc 1 468 0
 2010 012c 2B4B     		ldr	r3, .L161
 2011 012e 2B4A     		ldr	r2, .L161
 2012 0130 5278     		ldrb	r2, [r2, #1]
 2013 0132 D2B2     		uxtb	r2, r2
 2014 0134 0221     		mov	r1, #2
 2015 0136 8A43     		bic	r2, r1
 2016 0138 D2B2     		uxtb	r2, r2
 2017 013a 5A70     		strb	r2, [r3, #1]
 469:C:/Users/b01252/Documents/Freescale/L4K/software/kinetis_kl46_sc/src/drivers/mcg\mcg.c ****   
 470:C:/Users/b01252/Documents/Freescale/L4K/software/kinetis_kl46_sc/src/drivers/mcg\mcg.c **** // wait for PLLST status bit to set
 471:C:/Users/b01252/Documents/Freescale/L4K/software/kinetis_kl46_sc/src/drivers/mcg\mcg.c ****   for (i = 0 ; i < 2000 ; i++)
 2018              		.loc 1 471 0
 2019 013c 3B1C     		mov	r3, r7
 2020 013e 0E33     		add	r3, r3, #14
 2021 0140 0022     		mov	r2, #0
 2022 0142 1A80     		strh	r2, [r3]
 2023 0144 0DE0     		b	.L149
 2024              	.L152:
 472:C:/Users/b01252/Documents/Freescale/L4K/software/kinetis_kl46_sc/src/drivers/mcg\mcg.c ****   {
 473:C:/Users/b01252/Documents/Freescale/L4K/software/kinetis_kl46_sc/src/drivers/mcg\mcg.c ****     if (MCG_S & MCG_S_PLLST_MASK) break; // jump out early if PLLST sets before loop finishes
 2025              		.loc 1 473 0
 2026 0146 254B     		ldr	r3, .L161
 2027 0148 9B79     		ldrb	r3, [r3, #6]
 2028 014a DBB2     		uxtb	r3, r3
 2029 014c 1A1C     		mov	r2, r3
 2030 014e 2023     		mov	r3, #32
 2031 0150 1340     		and	r3, r2
 2032 0152 0ED1     		bne	.L159
 2033              	.L150:
 471:C:/Users/b01252/Documents/Freescale/L4K/software/kinetis_kl46_sc/src/drivers/mcg\mcg.c ****   for (i = 0 ; i < 2000 ; i++)
 2034              		.loc 1 471 0
 2035 0154 3B1C     		mov	r3, r7
 2036 0156 0E33     		add	r3, r3, #14
 2037 0158 3A1C     		mov	r2, r7
 2038 015a 0E32     		add	r2, r2, #14
 2039 015c 1288     		ldrh	r2, [r2]
 2040 015e 0132     		add	r2, r2, #1
 2041 0160 1A80     		strh	r2, [r3]
 2042              	.L149:
 471:C:/Users/b01252/Documents/Freescale/L4K/software/kinetis_kl46_sc/src/drivers/mcg\mcg.c ****   for (i = 0 ; i < 2000 ; i++)
 2043              		.loc 1 471 0 is_stmt 0
 2044 0162 3B1C     		mov	r3, r7
 2045 0164 0E33     		add	r3, r3, #14
 2046 0166 0021     		mov	r1, #0
 2047 0168 5A5E     		ldrsh	r2, [r3, r1]
 2048 016a 1F4B     		ldr	r3, .L161+12
 2049 016c 9A42     		cmp	r2, r3
 2050 016e EADD     		ble	.L152
 2051 0170 00E0     		b	.L151
 2052              	.L159:
 2053              		.loc 1 473 0 is_stmt 1
 2054 0172 C046     		mov	r8, r8
 2055              	.L151:
 474:C:/Users/b01252/Documents/Freescale/L4K/software/kinetis_kl46_sc/src/drivers/mcg\mcg.c ****   }
 475:C:/Users/b01252/Documents/Freescale/L4K/software/kinetis_kl46_sc/src/drivers/mcg\mcg.c ****   if (!(MCG_S & MCG_S_PLLST_MASK)) return 0x16; // check bit is really set and return with error if
 2056              		.loc 1 475 0
 2057 0174 194B     		ldr	r3, .L161
 2058 0176 9B79     		ldrb	r3, [r3, #6]
 2059 0178 DBB2     		uxtb	r3, r3
 2060 017a 1A1C     		mov	r2, r3
 2061 017c 2023     		mov	r3, #32
 2062 017e 1340     		and	r3, r2
 2063 0180 01D1     		bne	.L153
 2064              		.loc 1 475 0 is_stmt 0
 2065 0182 1623     		mov	r3, #22
 2066 0184 25E0     		b	.L142
 2067              	.L153:
 476:C:/Users/b01252/Documents/Freescale/L4K/software/kinetis_kl46_sc/src/drivers/mcg\mcg.c **** 
 477:C:/Users/b01252/Documents/Freescale/L4K/software/kinetis_kl46_sc/src/drivers/mcg\mcg.c **** // Wait for LOCK bit to set
 478:C:/Users/b01252/Documents/Freescale/L4K/software/kinetis_kl46_sc/src/drivers/mcg\mcg.c ****   for (i = 0 ; i < 2000 ; i++)
 2068              		.loc 1 478 0 is_stmt 1
 2069 0186 3B1C     		mov	r3, r7
 2070 0188 0E33     		add	r3, r3, #14
 2071 018a 0022     		mov	r2, #0
 2072 018c 1A80     		strh	r2, [r3]
 2073 018e 0DE0     		b	.L154
 2074              	.L157:
 479:C:/Users/b01252/Documents/Freescale/L4K/software/kinetis_kl46_sc/src/drivers/mcg\mcg.c ****   {
 480:C:/Users/b01252/Documents/Freescale/L4K/software/kinetis_kl46_sc/src/drivers/mcg\mcg.c ****     if (MCG_S & MCG_S_LOCK0_MASK) break; // jump out early if LOCK sets before loop finishes
 2075              		.loc 1 480 0
 2076 0190 124B     		ldr	r3, .L161
 2077 0192 9B79     		ldrb	r3, [r3, #6]
 2078 0194 DBB2     		uxtb	r3, r3
 2079 0196 1A1C     		mov	r2, r3
 2080 0198 4023     		mov	r3, #64
 2081 019a 1340     		and	r3, r2
 2082 019c 0ED1     		bne	.L160
 2083              	.L155:
 478:C:/Users/b01252/Documents/Freescale/L4K/software/kinetis_kl46_sc/src/drivers/mcg\mcg.c ****   for (i = 0 ; i < 2000 ; i++)
 2084              		.loc 1 478 0
 2085 019e 3B1C     		mov	r3, r7
 2086 01a0 0E33     		add	r3, r3, #14
 2087 01a2 3A1C     		mov	r2, r7
 2088 01a4 0E32     		add	r2, r2, #14
 2089 01a6 1288     		ldrh	r2, [r2]
 2090 01a8 0132     		add	r2, r2, #1
 2091 01aa 1A80     		strh	r2, [r3]
 2092              	.L154:
 478:C:/Users/b01252/Documents/Freescale/L4K/software/kinetis_kl46_sc/src/drivers/mcg\mcg.c ****   for (i = 0 ; i < 2000 ; i++)
 2093              		.loc 1 478 0 is_stmt 0
 2094 01ac 3B1C     		mov	r3, r7
 2095 01ae 0E33     		add	r3, r3, #14
 2096 01b0 0021     		mov	r1, #0
 2097 01b2 5A5E     		ldrsh	r2, [r3, r1]
 2098 01b4 0C4B     		ldr	r3, .L161+12
 2099 01b6 9A42     		cmp	r2, r3
 2100 01b8 EADD     		ble	.L157
 2101 01ba 00E0     		b	.L156
 2102              	.L160:
 2103              		.loc 1 480 0 is_stmt 1
 2104 01bc C046     		mov	r8, r8
 2105              	.L156:
 481:C:/Users/b01252/Documents/Freescale/L4K/software/kinetis_kl46_sc/src/drivers/mcg\mcg.c ****   }
 482:C:/Users/b01252/Documents/Freescale/L4K/software/kinetis_kl46_sc/src/drivers/mcg\mcg.c ****   if (!(MCG_S & MCG_S_LOCK0_MASK)) return 0x44; // check bit is really set and return with error if
 2106              		.loc 1 482 0
 2107 01be 074B     		ldr	r3, .L161
 2108 01c0 9B79     		ldrb	r3, [r3, #6]
 2109 01c2 DBB2     		uxtb	r3, r3
 2110 01c4 1A1C     		mov	r2, r3
 2111 01c6 4023     		mov	r3, #64
 2112 01c8 1340     		and	r3, r2
 2113 01ca 01D1     		bne	.L158
 2114              		.loc 1 482 0 is_stmt 0
 2115 01cc 4423     		mov	r3, #68
 2116 01ce 00E0     		b	.L142
 2117              	.L158:
 483:C:/Users/b01252/Documents/Freescale/L4K/software/kinetis_kl46_sc/src/drivers/mcg\mcg.c **** 
 484:C:/Users/b01252/Documents/Freescale/L4K/software/kinetis_kl46_sc/src/drivers/mcg\mcg.c **** // now in PBE 
 485:C:/Users/b01252/Documents/Freescale/L4K/software/kinetis_kl46_sc/src/drivers/mcg\mcg.c ****   return crystal_val; // MCGOUT frequency equals external clock frequency  
 2118              		.loc 1 485 0 is_stmt 1
 2119 01d0 7B68     		ldr	r3, [r7, #4]
 2120              	.L142:
 486:C:/Users/b01252/Documents/Freescale/L4K/software/kinetis_kl46_sc/src/drivers/mcg\mcg.c **** } // blpe_pbe
 2121              		.loc 1 486 0
 2122 01d2 181C     		mov	r0, r3
 2123 01d4 BD46     		mov	sp, r7
 2124 01d6 04B0     		add	sp, sp, #16
 2125              		@ sp needed for prologue
 2126 01d8 80BD     		pop	{r7, pc}
 2127              	.L162:
 2128 01da C046     		.align	2
 2129              	.L161:
 2130 01dc 00400640 		.word	1074151424
 2131 01e0 7F841E00 		.word	1999999
 2132 01e4 00093D00 		.word	4000000
 2133 01e8 CF070000 		.word	1999
 2134              		.cfi_endproc
 2135              	.LFE6:
 2137              		.section	.text.blpe_fbe,"ax",%progbits
 2138              		.align	2
 2139              		.global	blpe_fbe
 2140              		.code	16
 2141              		.thumb_func
 2143              	blpe_fbe:
 2144              	.LFB7:
 487:C:/Users/b01252/Documents/Freescale/L4K/software/kinetis_kl46_sc/src/drivers/mcg\mcg.c **** 
 488:C:/Users/b01252/Documents/Freescale/L4K/software/kinetis_kl46_sc/src/drivers/mcg\mcg.c **** 
 489:C:/Users/b01252/Documents/Freescale/L4K/software/kinetis_kl46_sc/src/drivers/mcg\mcg.c **** int blpe_fbe(int crystal_val)
 490:C:/Users/b01252/Documents/Freescale/L4K/software/kinetis_kl46_sc/src/drivers/mcg\mcg.c **** {
 2145              		.loc 1 490 0
 2146              		.cfi_startproc
 2147 0000 80B5     		push	{r7, lr}
 2148              	.LCFI21:
 2149              		.cfi_def_cfa_offset 8
 2150              		.cfi_offset 7, -8
 2151              		.cfi_offset 14, -4
 2152 0002 84B0     		sub	sp, sp, #16
 2153              	.LCFI22:
 2154              		.cfi_def_cfa_offset 24
 2155 0004 00AF     		add	r7, sp, #0
 2156              	.LCFI23:
 2157              		.cfi_def_cfa_register 7
 2158 0006 7860     		str	r0, [r7, #4]
 491:C:/Users/b01252/Documents/Freescale/L4K/software/kinetis_kl46_sc/src/drivers/mcg\mcg.c ****   short i;
 492:C:/Users/b01252/Documents/Freescale/L4K/software/kinetis_kl46_sc/src/drivers/mcg\mcg.c ****   
 493:C:/Users/b01252/Documents/Freescale/L4K/software/kinetis_kl46_sc/src/drivers/mcg\mcg.c **** // Check MCG is in BLPE mode
 494:C:/Users/b01252/Documents/Freescale/L4K/software/kinetis_kl46_sc/src/drivers/mcg\mcg.c ****   if (!((((MCG_S & MCG_S_CLKST_MASK) >> MCG_S_CLKST_SHIFT) == 0x2) && // check CLKS mux has selcted
 2159              		.loc 1 494 0
 2160 0008 294B     		ldr	r3, .L173
 2161 000a 9B79     		ldrb	r3, [r3, #6]
 2162 000c DBB2     		uxtb	r3, r3
 2163 000e 1A1C     		mov	r2, r3
 2164 0010 0C23     		mov	r3, #12
 2165 0012 1340     		and	r3, r2
 2166 0014 9B08     		lsr	r3, r3, #2
 2167 0016 022B     		cmp	r3, #2
 2168 0018 0DD1     		bne	.L164
 495:C:/Users/b01252/Documents/Freescale/L4K/software/kinetis_kl46_sc/src/drivers/mcg\mcg.c ****       (!(MCG_S & MCG_S_IREFST_MASK)) &&                               // check FLL ref is external 
 2169              		.loc 1 495 0
 2170 001a 254B     		ldr	r3, .L173
 2171 001c 9B79     		ldrb	r3, [r3, #6]
 2172 001e DBB2     		uxtb	r3, r3
 2173 0020 1A1C     		mov	r2, r3
 2174 0022 1023     		mov	r3, #16
 2175 0024 1340     		and	r3, r2
 494:C:/Users/b01252/Documents/Freescale/L4K/software/kinetis_kl46_sc/src/drivers/mcg\mcg.c ****   if (!((((MCG_S & MCG_S_CLKST_MASK) >> MCG_S_CLKST_SHIFT) == 0x2) && // check CLKS mux has selcted
 2176              		.loc 1 494 0
 2177 0026 06D1     		bne	.L164
 496:C:/Users/b01252/Documents/Freescale/L4K/software/kinetis_kl46_sc/src/drivers/mcg\mcg.c ****       (MCG_C2 & MCG_C2_LP_MASK)))                                     // check MCG_C2[LP] bit is se
 2178              		.loc 1 496 0
 2179 0028 214B     		ldr	r3, .L173
 2180 002a 5B78     		ldrb	r3, [r3, #1]
 2181 002c DBB2     		uxtb	r3, r3
 2182 002e 1A1C     		mov	r2, r3
 2183 0030 0223     		mov	r3, #2
 2184 0032 1340     		and	r3, r2
 494:C:/Users/b01252/Documents/Freescale/L4K/software/kinetis_kl46_sc/src/drivers/mcg\mcg.c ****   if (!((((MCG_S & MCG_S_CLKST_MASK) >> MCG_S_CLKST_SHIFT) == 0x2) && // check CLKS mux has selcted
 2185              		.loc 1 494 0
 2186 0034 01D1     		bne	.L165
 2187              	.L164:
 497:C:/Users/b01252/Documents/Freescale/L4K/software/kinetis_kl46_sc/src/drivers/mcg\mcg.c ****   {
 498:C:/Users/b01252/Documents/Freescale/L4K/software/kinetis_kl46_sc/src/drivers/mcg\mcg.c ****     return 0x6;                                                       // return error code
 2188              		.loc 1 498 0
 2189 0036 0623     		mov	r3, #6
 2190 0038 35E0     		b	.L166
 2191              	.L165:
 499:C:/Users/b01252/Documents/Freescale/L4K/software/kinetis_kl46_sc/src/drivers/mcg\mcg.c ****   }
 500:C:/Users/b01252/Documents/Freescale/L4K/software/kinetis_kl46_sc/src/drivers/mcg\mcg.c ****  
 501:C:/Users/b01252/Documents/Freescale/L4K/software/kinetis_kl46_sc/src/drivers/mcg\mcg.c **** // To move from BLPE to FBE the PLLS mux be set to select the FLL output and the LP bit must be cle
 502:C:/Users/b01252/Documents/Freescale/L4K/software/kinetis_kl46_sc/src/drivers/mcg\mcg.c ****   MCG_C6 &= ~MCG_C6_PLLS_MASK; // clear PLLS to select the FLL
 2192              		.loc 1 502 0
 2193 003a 1D4B     		ldr	r3, .L173
 2194 003c 1C4A     		ldr	r2, .L173
 2195 003e 5279     		ldrb	r2, [r2, #5]
 2196 0040 D2B2     		uxtb	r2, r2
 2197 0042 4021     		mov	r1, #64
 2198 0044 8A43     		bic	r2, r1
 2199 0046 D2B2     		uxtb	r2, r2
 2200 0048 5A71     		strb	r2, [r3, #5]
 503:C:/Users/b01252/Documents/Freescale/L4K/software/kinetis_kl46_sc/src/drivers/mcg\mcg.c ****   MCG_C2 &= ~MCG_C2_LP_MASK; // clear LP bit  
 2201              		.loc 1 503 0
 2202 004a 194B     		ldr	r3, .L173
 2203 004c 184A     		ldr	r2, .L173
 2204 004e 5278     		ldrb	r2, [r2, #1]
 2205 0050 D2B2     		uxtb	r2, r2
 2206 0052 0221     		mov	r1, #2
 2207 0054 8A43     		bic	r2, r1
 2208 0056 D2B2     		uxtb	r2, r2
 2209 0058 5A70     		strb	r2, [r3, #1]
 504:C:/Users/b01252/Documents/Freescale/L4K/software/kinetis_kl46_sc/src/drivers/mcg\mcg.c **** 
 505:C:/Users/b01252/Documents/Freescale/L4K/software/kinetis_kl46_sc/src/drivers/mcg\mcg.c **** // wait for PLLST status bit to clear
 506:C:/Users/b01252/Documents/Freescale/L4K/software/kinetis_kl46_sc/src/drivers/mcg\mcg.c ****   for (i = 0 ; i < 2000 ; i++)
 2210              		.loc 1 506 0
 2211 005a 3B1C     		mov	r3, r7
 2212 005c 0E33     		add	r3, r3, #14
 2213 005e 0022     		mov	r2, #0
 2214 0060 1A80     		strh	r2, [r3]
 2215 0062 0DE0     		b	.L167
 2216              	.L170:
 507:C:/Users/b01252/Documents/Freescale/L4K/software/kinetis_kl46_sc/src/drivers/mcg\mcg.c ****   {
 508:C:/Users/b01252/Documents/Freescale/L4K/software/kinetis_kl46_sc/src/drivers/mcg\mcg.c ****     if (!(MCG_S & MCG_S_PLLST_MASK)) break; // jump out early if PLLST clears before loop finishes
 2217              		.loc 1 508 0
 2218 0064 124B     		ldr	r3, .L173
 2219 0066 9B79     		ldrb	r3, [r3, #6]
 2220 0068 DBB2     		uxtb	r3, r3
 2221 006a 1A1C     		mov	r2, r3
 2222 006c 2023     		mov	r3, #32
 2223 006e 1340     		and	r3, r2
 2224 0070 0ED0     		beq	.L172
 2225              	.L168:
 506:C:/Users/b01252/Documents/Freescale/L4K/software/kinetis_kl46_sc/src/drivers/mcg\mcg.c ****   for (i = 0 ; i < 2000 ; i++)
 2226              		.loc 1 506 0
 2227 0072 3B1C     		mov	r3, r7
 2228 0074 0E33     		add	r3, r3, #14
 2229 0076 3A1C     		mov	r2, r7
 2230 0078 0E32     		add	r2, r2, #14
 2231 007a 1288     		ldrh	r2, [r2]
 2232 007c 0132     		add	r2, r2, #1
 2233 007e 1A80     		strh	r2, [r3]
 2234              	.L167:
 506:C:/Users/b01252/Documents/Freescale/L4K/software/kinetis_kl46_sc/src/drivers/mcg\mcg.c ****   for (i = 0 ; i < 2000 ; i++)
 2235              		.loc 1 506 0 is_stmt 0
 2236 0080 3B1C     		mov	r3, r7
 2237 0082 0E33     		add	r3, r3, #14
 2238 0084 0021     		mov	r1, #0
 2239 0086 5A5E     		ldrsh	r2, [r3, r1]
 2240 0088 0A4B     		ldr	r3, .L173+4
 2241 008a 9A42     		cmp	r2, r3
 2242 008c EADD     		ble	.L170
 2243 008e 00E0     		b	.L169
 2244              	.L172:
 2245              		.loc 1 508 0 is_stmt 1
 2246 0090 C046     		mov	r8, r8
 2247              	.L169:
 509:C:/Users/b01252/Documents/Freescale/L4K/software/kinetis_kl46_sc/src/drivers/mcg\mcg.c ****   }
 510:C:/Users/b01252/Documents/Freescale/L4K/software/kinetis_kl46_sc/src/drivers/mcg\mcg.c ****   if (MCG_S & MCG_S_PLLST_MASK) return 0x15; // check bit is really clear and return with error if 
 2248              		.loc 1 510 0
 2249 0092 074B     		ldr	r3, .L173
 2250 0094 9B79     		ldrb	r3, [r3, #6]
 2251 0096 DBB2     		uxtb	r3, r3
 2252 0098 1A1C     		mov	r2, r3
 2253 009a 2023     		mov	r3, #32
 2254 009c 1340     		and	r3, r2
 2255 009e 01D0     		beq	.L171
 2256              		.loc 1 510 0 is_stmt 0
 2257 00a0 1523     		mov	r3, #21
 2258 00a2 00E0     		b	.L166
 2259              	.L171:
 511:C:/Users/b01252/Documents/Freescale/L4K/software/kinetis_kl46_sc/src/drivers/mcg\mcg.c ****   
 512:C:/Users/b01252/Documents/Freescale/L4K/software/kinetis_kl46_sc/src/drivers/mcg\mcg.c **** // now in FBE mode
 513:C:/Users/b01252/Documents/Freescale/L4K/software/kinetis_kl46_sc/src/drivers/mcg\mcg.c ****   return crystal_val; // MCGOUT frequency equals external clock frequency     
 2260              		.loc 1 513 0 is_stmt 1
 2261 00a4 7B68     		ldr	r3, [r7, #4]
 2262              	.L166:
 514:C:/Users/b01252/Documents/Freescale/L4K/software/kinetis_kl46_sc/src/drivers/mcg\mcg.c **** } // blpe_fbe
 2263              		.loc 1 514 0
 2264 00a6 181C     		mov	r0, r3
 2265 00a8 BD46     		mov	sp, r7
 2266 00aa 04B0     		add	sp, sp, #16
 2267              		@ sp needed for prologue
 2268 00ac 80BD     		pop	{r7, pc}
 2269              	.L174:
 2270 00ae C046     		.align	2
 2271              	.L173:
 2272 00b0 00400640 		.word	1074151424
 2273 00b4 CF070000 		.word	1999
 2274              		.cfi_endproc
 2275              	.LFE7:
 2277              		.section	.text.fbe_blpe,"ax",%progbits
 2278              		.align	2
 2279              		.global	fbe_blpe
 2280              		.code	16
 2281              		.thumb_func
 2283              	fbe_blpe:
 2284              	.LFB8:
 515:C:/Users/b01252/Documents/Freescale/L4K/software/kinetis_kl46_sc/src/drivers/mcg\mcg.c **** 
 516:C:/Users/b01252/Documents/Freescale/L4K/software/kinetis_kl46_sc/src/drivers/mcg\mcg.c **** 
 517:C:/Users/b01252/Documents/Freescale/L4K/software/kinetis_kl46_sc/src/drivers/mcg\mcg.c **** int fbe_blpe(int crystal_val)
 518:C:/Users/b01252/Documents/Freescale/L4K/software/kinetis_kl46_sc/src/drivers/mcg\mcg.c **** {
 2285              		.loc 1 518 0
 2286              		.cfi_startproc
 2287 0000 80B5     		push	{r7, lr}
 2288              	.LCFI24:
 2289              		.cfi_def_cfa_offset 8
 2290              		.cfi_offset 7, -8
 2291              		.cfi_offset 14, -4
 2292 0002 82B0     		sub	sp, sp, #8
 2293              	.LCFI25:
 2294              		.cfi_def_cfa_offset 16
 2295 0004 00AF     		add	r7, sp, #0
 2296              	.LCFI26:
 2297              		.cfi_def_cfa_register 7
 2298 0006 7860     		str	r0, [r7, #4]
 519:C:/Users/b01252/Documents/Freescale/L4K/software/kinetis_kl46_sc/src/drivers/mcg\mcg.c **** // Check MCG is in FBE mode
 520:C:/Users/b01252/Documents/Freescale/L4K/software/kinetis_kl46_sc/src/drivers/mcg\mcg.c ****   if (!((((MCG_S & MCG_S_CLKST_MASK) >> MCG_S_CLKST_SHIFT) == 0x2) && // check CLKS mux has selcted
 2299              		.loc 1 520 0
 2300 0008 164B     		ldr	r3, .L179
 2301 000a 9B79     		ldrb	r3, [r3, #6]
 2302 000c DBB2     		uxtb	r3, r3
 2303 000e 1A1C     		mov	r2, r3
 2304 0010 0C23     		mov	r3, #12
 2305 0012 1340     		and	r3, r2
 2306 0014 9B08     		lsr	r3, r3, #2
 2307 0016 022B     		cmp	r3, #2
 2308 0018 14D1     		bne	.L176
 521:C:/Users/b01252/Documents/Freescale/L4K/software/kinetis_kl46_sc/src/drivers/mcg\mcg.c ****       (!(MCG_S & MCG_S_IREFST_MASK)) &&                               // check FLL ref is external 
 2309              		.loc 1 521 0
 2310 001a 124B     		ldr	r3, .L179
 2311 001c 9B79     		ldrb	r3, [r3, #6]
 2312 001e DBB2     		uxtb	r3, r3
 2313 0020 1A1C     		mov	r2, r3
 2314 0022 1023     		mov	r3, #16
 2315 0024 1340     		and	r3, r2
 520:C:/Users/b01252/Documents/Freescale/L4K/software/kinetis_kl46_sc/src/drivers/mcg\mcg.c ****   if (!((((MCG_S & MCG_S_CLKST_MASK) >> MCG_S_CLKST_SHIFT) == 0x2) && // check CLKS mux has selcted
 2316              		.loc 1 520 0
 2317 0026 0DD1     		bne	.L176
 522:C:/Users/b01252/Documents/Freescale/L4K/software/kinetis_kl46_sc/src/drivers/mcg\mcg.c ****       (!(MCG_S & MCG_S_PLLST_MASK)) &&                                // check PLLS mux has selecte
 2318              		.loc 1 522 0
 2319 0028 0E4B     		ldr	r3, .L179
 2320 002a 9B79     		ldrb	r3, [r3, #6]
 2321 002c DBB2     		uxtb	r3, r3
 2322 002e 1A1C     		mov	r2, r3
 2323 0030 2023     		mov	r3, #32
 2324 0032 1340     		and	r3, r2
 521:C:/Users/b01252/Documents/Freescale/L4K/software/kinetis_kl46_sc/src/drivers/mcg\mcg.c ****       (!(MCG_S & MCG_S_IREFST_MASK)) &&                               // check FLL ref is external 
 2325              		.loc 1 521 0
 2326 0034 06D1     		bne	.L176
 523:C:/Users/b01252/Documents/Freescale/L4K/software/kinetis_kl46_sc/src/drivers/mcg\mcg.c ****       (!(MCG_C2 & MCG_C2_LP_MASK))))                                  // check MCG_C2[LP] bit is no
 2327              		.loc 1 523 0
 2328 0036 0B4B     		ldr	r3, .L179
 2329 0038 5B78     		ldrb	r3, [r3, #1]
 2330 003a DBB2     		uxtb	r3, r3
 2331 003c 1A1C     		mov	r2, r3
 2332 003e 0223     		mov	r3, #2
 2333 0040 1340     		and	r3, r2
 520:C:/Users/b01252/Documents/Freescale/L4K/software/kinetis_kl46_sc/src/drivers/mcg\mcg.c ****   if (!((((MCG_S & MCG_S_CLKST_MASK) >> MCG_S_CLKST_SHIFT) == 0x2) && // check CLKS mux has selcted
 2334              		.loc 1 520 0
 2335 0042 01D0     		beq	.L177
 2336              	.L176:
 524:C:/Users/b01252/Documents/Freescale/L4K/software/kinetis_kl46_sc/src/drivers/mcg\mcg.c ****   {
 525:C:/Users/b01252/Documents/Freescale/L4K/software/kinetis_kl46_sc/src/drivers/mcg\mcg.c ****     return 0x4;                                                       // return error code
 2337              		.loc 1 525 0
 2338 0044 0423     		mov	r3, #4
 2339 0046 08E0     		b	.L178
 2340              	.L177:
 526:C:/Users/b01252/Documents/Freescale/L4K/software/kinetis_kl46_sc/src/drivers/mcg\mcg.c ****   }
 527:C:/Users/b01252/Documents/Freescale/L4K/software/kinetis_kl46_sc/src/drivers/mcg\mcg.c ****  
 528:C:/Users/b01252/Documents/Freescale/L4K/software/kinetis_kl46_sc/src/drivers/mcg\mcg.c **** // To move from FBE to BLPE the LP bit must be set
 529:C:/Users/b01252/Documents/Freescale/L4K/software/kinetis_kl46_sc/src/drivers/mcg\mcg.c ****   MCG_C2 |= MCG_C2_LP_MASK; // set LP bit  
 2341              		.loc 1 529 0
 2342 0048 064B     		ldr	r3, .L179
 2343 004a 064A     		ldr	r2, .L179
 2344 004c 5278     		ldrb	r2, [r2, #1]
 2345 004e D2B2     		uxtb	r2, r2
 2346 0050 0221     		mov	r1, #2
 2347 0052 0A43     		orr	r2, r1
 2348 0054 D2B2     		uxtb	r2, r2
 2349 0056 5A70     		strb	r2, [r3, #1]
 530:C:/Users/b01252/Documents/Freescale/L4K/software/kinetis_kl46_sc/src/drivers/mcg\mcg.c ****  
 531:C:/Users/b01252/Documents/Freescale/L4K/software/kinetis_kl46_sc/src/drivers/mcg\mcg.c **** // now in FBE mode
 532:C:/Users/b01252/Documents/Freescale/L4K/software/kinetis_kl46_sc/src/drivers/mcg\mcg.c ****   return crystal_val; // MCGOUT frequency equals external clock frequency     
 2350              		.loc 1 532 0
 2351 0058 7B68     		ldr	r3, [r7, #4]
 2352              	.L178:
 533:C:/Users/b01252/Documents/Freescale/L4K/software/kinetis_kl46_sc/src/drivers/mcg\mcg.c **** } // fbe_blpe
 2353              		.loc 1 533 0
 2354 005a 181C     		mov	r0, r3
 2355 005c BD46     		mov	sp, r7
 2356 005e 02B0     		add	sp, sp, #8
 2357              		@ sp needed for prologue
 2358 0060 80BD     		pop	{r7, pc}
 2359              	.L180:
 2360 0062 C046     		.align	2
 2361              	.L179:
 2362 0064 00400640 		.word	1074151424
 2363              		.cfi_endproc
 2364              	.LFE8:
 2366              		.section	.text.fbe_fei,"ax",%progbits
 2367              		.align	2
 2368              		.global	fbe_fei
 2369              		.code	16
 2370              		.thumb_func
 2372              	fbe_fei:
 2373              	.LFB9:
 534:C:/Users/b01252/Documents/Freescale/L4K/software/kinetis_kl46_sc/src/drivers/mcg\mcg.c **** 
 535:C:/Users/b01252/Documents/Freescale/L4K/software/kinetis_kl46_sc/src/drivers/mcg\mcg.c **** 
 536:C:/Users/b01252/Documents/Freescale/L4K/software/kinetis_kl46_sc/src/drivers/mcg\mcg.c **** int fbe_fei(int slow_irc_freq)
 537:C:/Users/b01252/Documents/Freescale/L4K/software/kinetis_kl46_sc/src/drivers/mcg\mcg.c **** {
 2374              		.loc 1 537 0
 2375              		.cfi_startproc
 2376 0000 80B5     		push	{r7, lr}
 2377              	.LCFI27:
 2378              		.cfi_def_cfa_offset 8
 2379              		.cfi_offset 7, -8
 2380              		.cfi_offset 14, -4
 2381 0002 86B0     		sub	sp, sp, #24
 2382              	.LCFI28:
 2383              		.cfi_def_cfa_offset 32
 2384 0004 00AF     		add	r7, sp, #0
 2385              	.LCFI29:
 2386              		.cfi_def_cfa_register 7
 2387 0006 7860     		str	r0, [r7, #4]
 538:C:/Users/b01252/Documents/Freescale/L4K/software/kinetis_kl46_sc/src/drivers/mcg\mcg.c ****   unsigned char temp_reg;
 539:C:/Users/b01252/Documents/Freescale/L4K/software/kinetis_kl46_sc/src/drivers/mcg\mcg.c ****   short i;
 540:C:/Users/b01252/Documents/Freescale/L4K/software/kinetis_kl46_sc/src/drivers/mcg\mcg.c ****   int mcg_out;
 541:C:/Users/b01252/Documents/Freescale/L4K/software/kinetis_kl46_sc/src/drivers/mcg\mcg.c ****   
 542:C:/Users/b01252/Documents/Freescale/L4K/software/kinetis_kl46_sc/src/drivers/mcg\mcg.c **** // Check MCG is in FBE mode
 543:C:/Users/b01252/Documents/Freescale/L4K/software/kinetis_kl46_sc/src/drivers/mcg\mcg.c ****   if (!((((MCG_S & MCG_S_CLKST_MASK) >> MCG_S_CLKST_SHIFT) == 0x2) && // check CLKS mux has selcted
 2388              		.loc 1 543 0
 2389 0008 534B     		ldr	r3, .L200
 2390 000a 9B79     		ldrb	r3, [r3, #6]
 2391 000c DBB2     		uxtb	r3, r3
 2392 000e 1A1C     		mov	r2, r3
 2393 0010 0C23     		mov	r3, #12
 2394 0012 1340     		and	r3, r2
 2395 0014 9B08     		lsr	r3, r3, #2
 2396 0016 022B     		cmp	r3, #2
 2397 0018 14D1     		bne	.L182
 544:C:/Users/b01252/Documents/Freescale/L4K/software/kinetis_kl46_sc/src/drivers/mcg\mcg.c ****       (!(MCG_S & MCG_S_IREFST_MASK)) &&                               // check FLL ref is external 
 2398              		.loc 1 544 0
 2399 001a 4F4B     		ldr	r3, .L200
 2400 001c 9B79     		ldrb	r3, [r3, #6]
 2401 001e DBB2     		uxtb	r3, r3
 2402 0020 1A1C     		mov	r2, r3
 2403 0022 1023     		mov	r3, #16
 2404 0024 1340     		and	r3, r2
 543:C:/Users/b01252/Documents/Freescale/L4K/software/kinetis_kl46_sc/src/drivers/mcg\mcg.c ****   if (!((((MCG_S & MCG_S_CLKST_MASK) >> MCG_S_CLKST_SHIFT) == 0x2) && // check CLKS mux has selcted
 2405              		.loc 1 543 0
 2406 0026 0DD1     		bne	.L182
 545:C:/Users/b01252/Documents/Freescale/L4K/software/kinetis_kl46_sc/src/drivers/mcg\mcg.c ****       (!(MCG_S & MCG_S_PLLST_MASK)) &&                                // check PLLS mux has selecte
 2407              		.loc 1 545 0
 2408 0028 4B4B     		ldr	r3, .L200
 2409 002a 9B79     		ldrb	r3, [r3, #6]
 2410 002c DBB2     		uxtb	r3, r3
 2411 002e 1A1C     		mov	r2, r3
 2412 0030 2023     		mov	r3, #32
 2413 0032 1340     		and	r3, r2
 544:C:/Users/b01252/Documents/Freescale/L4K/software/kinetis_kl46_sc/src/drivers/mcg\mcg.c ****       (!(MCG_S & MCG_S_IREFST_MASK)) &&                               // check FLL ref is external 
 2414              		.loc 1 544 0
 2415 0034 06D1     		bne	.L182
 546:C:/Users/b01252/Documents/Freescale/L4K/software/kinetis_kl46_sc/src/drivers/mcg\mcg.c ****       (!(MCG_C2 & MCG_C2_LP_MASK))))                                  // check MCG_C2[LP] bit is no
 2416              		.loc 1 546 0
 2417 0036 484B     		ldr	r3, .L200
 2418 0038 5B78     		ldrb	r3, [r3, #1]
 2419 003a DBB2     		uxtb	r3, r3
 2420 003c 1A1C     		mov	r2, r3
 2421 003e 0223     		mov	r3, #2
 2422 0040 1340     		and	r3, r2
 543:C:/Users/b01252/Documents/Freescale/L4K/software/kinetis_kl46_sc/src/drivers/mcg\mcg.c ****   if (!((((MCG_S & MCG_S_CLKST_MASK) >> MCG_S_CLKST_SHIFT) == 0x2) && // check CLKS mux has selcted
 2423              		.loc 1 543 0
 2424 0042 01D0     		beq	.L183
 2425              	.L182:
 547:C:/Users/b01252/Documents/Freescale/L4K/software/kinetis_kl46_sc/src/drivers/mcg\mcg.c ****   {
 548:C:/Users/b01252/Documents/Freescale/L4K/software/kinetis_kl46_sc/src/drivers/mcg\mcg.c ****     return 0x4;                                                       // return error code
 2426              		.loc 1 548 0
 2427 0044 0423     		mov	r3, #4
 2428 0046 83E0     		b	.L184
 2429              	.L183:
 549:C:/Users/b01252/Documents/Freescale/L4K/software/kinetis_kl46_sc/src/drivers/mcg\mcg.c ****   }
 550:C:/Users/b01252/Documents/Freescale/L4K/software/kinetis_kl46_sc/src/drivers/mcg\mcg.c **** 
 551:C:/Users/b01252/Documents/Freescale/L4K/software/kinetis_kl46_sc/src/drivers/mcg\mcg.c **** // Check IRC frequency is within spec.
 552:C:/Users/b01252/Documents/Freescale/L4K/software/kinetis_kl46_sc/src/drivers/mcg\mcg.c ****   if ((slow_irc_freq < 31250) || (slow_irc_freq > 39063))
 2430              		.loc 1 552 0
 2431 0048 7A68     		ldr	r2, [r7, #4]
 2432 004a 444B     		ldr	r3, .L200+4
 2433 004c 9A42     		cmp	r2, r3
 2434 004e 03DD     		ble	.L185
 2435              		.loc 1 552 0 is_stmt 0
 2436 0050 7A68     		ldr	r2, [r7, #4]
 2437 0052 434B     		ldr	r3, .L200+8
 2438 0054 9A42     		cmp	r2, r3
 2439 0056 01DD     		ble	.L186
 2440              	.L185:
 553:C:/Users/b01252/Documents/Freescale/L4K/software/kinetis_kl46_sc/src/drivers/mcg\mcg.c ****   {
 554:C:/Users/b01252/Documents/Freescale/L4K/software/kinetis_kl46_sc/src/drivers/mcg\mcg.c ****     return 0x31;
 2441              		.loc 1 554 0 is_stmt 1
 2442 0058 3123     		mov	r3, #49
 2443 005a 79E0     		b	.L184
 2444              	.L186:
 555:C:/Users/b01252/Documents/Freescale/L4K/software/kinetis_kl46_sc/src/drivers/mcg\mcg.c ****   }
 556:C:/Users/b01252/Documents/Freescale/L4K/software/kinetis_kl46_sc/src/drivers/mcg\mcg.c ****   
 557:C:/Users/b01252/Documents/Freescale/L4K/software/kinetis_kl46_sc/src/drivers/mcg\mcg.c **** // Check resulting FLL frequency 
 558:C:/Users/b01252/Documents/Freescale/L4K/software/kinetis_kl46_sc/src/drivers/mcg\mcg.c ****   mcg_out = fll_freq(slow_irc_freq); 
 2445              		.loc 1 558 0
 2446 005c 7B68     		ldr	r3, [r7, #4]
 2447 005e 181C     		mov	r0, r3
 2448 0060 FFF7FEFF 		bl	fll_freq
 2449 0064 031C     		mov	r3, r0
 2450 0066 3B61     		str	r3, [r7, #16]
 559:C:/Users/b01252/Documents/Freescale/L4K/software/kinetis_kl46_sc/src/drivers/mcg\mcg.c ****   if (mcg_out < 0x3C) {return mcg_out;} // If error code returned, return the code to calling funct
 2451              		.loc 1 559 0
 2452 0068 3B69     		ldr	r3, [r7, #16]
 2453 006a 3B2B     		cmp	r3, #59
 2454 006c 01DC     		bgt	.L187
 2455              		.loc 1 559 0 is_stmt 0
 2456 006e 3B69     		ldr	r3, [r7, #16]
 2457 0070 6EE0     		b	.L184
 2458              	.L187:
 560:C:/Users/b01252/Documents/Freescale/L4K/software/kinetis_kl46_sc/src/drivers/mcg\mcg.c **** 
 561:C:/Users/b01252/Documents/Freescale/L4K/software/kinetis_kl46_sc/src/drivers/mcg\mcg.c **** // Need to make sure the clockmonitor is disabled before moving to an "internal" clock mode
 562:C:/Users/b01252/Documents/Freescale/L4K/software/kinetis_kl46_sc/src/drivers/mcg\mcg.c ****   MCG_C6 &= ~MCG_C6_CME0_MASK; //This assumes OSC0 is used as the external clock source
 2459              		.loc 1 562 0 is_stmt 1
 2460 0072 394B     		ldr	r3, .L200
 2461 0074 384A     		ldr	r2, .L200
 2462 0076 5279     		ldrb	r2, [r2, #5]
 2463 0078 D2B2     		uxtb	r2, r2
 2464 007a 2021     		mov	r1, #32
 2465 007c 8A43     		bic	r2, r1
 2466 007e D2B2     		uxtb	r2, r2
 2467 0080 5A71     		strb	r2, [r3, #5]
 563:C:/Users/b01252/Documents/Freescale/L4K/software/kinetis_kl46_sc/src/drivers/mcg\mcg.c ****   
 564:C:/Users/b01252/Documents/Freescale/L4K/software/kinetis_kl46_sc/src/drivers/mcg\mcg.c **** // Move to FEI by setting CLKS to 0 and enabling the slow IRC as the FLL reference clock
 565:C:/Users/b01252/Documents/Freescale/L4K/software/kinetis_kl46_sc/src/drivers/mcg\mcg.c ****   temp_reg = MCG_C1;
 2468              		.loc 1 565 0
 2469 0082 354A     		ldr	r2, .L200
 2470 0084 3B1C     		mov	r3, r7
 2471 0086 0F33     		add	r3, r3, #15
 2472 0088 1278     		ldrb	r2, [r2]
 2473 008a 1A70     		strb	r2, [r3]
 566:C:/Users/b01252/Documents/Freescale/L4K/software/kinetis_kl46_sc/src/drivers/mcg\mcg.c ****   temp_reg &= ~MCG_C1_CLKS_MASK; // clear CLKS to select FLL output
 2474              		.loc 1 566 0
 2475 008c 3B1C     		mov	r3, r7
 2476 008e 0F33     		add	r3, r3, #15
 2477 0090 3A1C     		mov	r2, r7
 2478 0092 0F32     		add	r2, r2, #15
 2479 0094 1178     		ldrb	r1, [r2]
 2480 0096 3F22     		mov	r2, #63
 2481 0098 0A40     		and	r2, r1
 2482 009a 1A70     		strb	r2, [r3]
 567:C:/Users/b01252/Documents/Freescale/L4K/software/kinetis_kl46_sc/src/drivers/mcg\mcg.c ****   temp_reg |= MCG_C1_IREFS_MASK; // select internal reference clock
 2483              		.loc 1 567 0
 2484 009c 3B1C     		mov	r3, r7
 2485 009e 0F33     		add	r3, r3, #15
 2486 00a0 3A1C     		mov	r2, r7
 2487 00a2 0F32     		add	r2, r2, #15
 2488 00a4 1278     		ldrb	r2, [r2]
 2489 00a6 0421     		mov	r1, #4
 2490 00a8 0A43     		orr	r2, r1
 2491 00aa 1A70     		strb	r2, [r3]
 568:C:/Users/b01252/Documents/Freescale/L4K/software/kinetis_kl46_sc/src/drivers/mcg\mcg.c ****   MCG_C1 = temp_reg; // update MCG_C1 
 2492              		.loc 1 568 0
 2493 00ac 2A4B     		ldr	r3, .L200
 2494 00ae 3A1C     		mov	r2, r7
 2495 00b0 0F32     		add	r2, r2, #15
 2496 00b2 1278     		ldrb	r2, [r2]
 2497 00b4 1A70     		strb	r2, [r3]
 569:C:/Users/b01252/Documents/Freescale/L4K/software/kinetis_kl46_sc/src/drivers/mcg\mcg.c ****   
 570:C:/Users/b01252/Documents/Freescale/L4K/software/kinetis_kl46_sc/src/drivers/mcg\mcg.c **** // wait for Reference clock Status bit to set
 571:C:/Users/b01252/Documents/Freescale/L4K/software/kinetis_kl46_sc/src/drivers/mcg\mcg.c ****   for (i = 0 ; i < 2000 ; i++)
 2498              		.loc 1 571 0
 2499 00b6 3B1C     		mov	r3, r7
 2500 00b8 1633     		add	r3, r3, #22
 2501 00ba 0022     		mov	r2, #0
 2502 00bc 1A80     		strh	r2, [r3]
 2503 00be 0DE0     		b	.L188
 2504              	.L191:
 572:C:/Users/b01252/Documents/Freescale/L4K/software/kinetis_kl46_sc/src/drivers/mcg\mcg.c ****   {
 573:C:/Users/b01252/Documents/Freescale/L4K/software/kinetis_kl46_sc/src/drivers/mcg\mcg.c ****     if (MCG_S & MCG_S_IREFST_MASK) break; // jump out early if IREFST sets before loop finishes
 2505              		.loc 1 573 0
 2506 00c0 254B     		ldr	r3, .L200
 2507 00c2 9B79     		ldrb	r3, [r3, #6]
 2508 00c4 DBB2     		uxtb	r3, r3
 2509 00c6 1A1C     		mov	r2, r3
 2510 00c8 1023     		mov	r3, #16
 2511 00ca 1340     		and	r3, r2
 2512 00cc 0ED1     		bne	.L198
 2513              	.L189:
 571:C:/Users/b01252/Documents/Freescale/L4K/software/kinetis_kl46_sc/src/drivers/mcg\mcg.c ****   for (i = 0 ; i < 2000 ; i++)
 2514              		.loc 1 571 0
 2515 00ce 3B1C     		mov	r3, r7
 2516 00d0 1633     		add	r3, r3, #22
 2517 00d2 3A1C     		mov	r2, r7
 2518 00d4 1632     		add	r2, r2, #22
 2519 00d6 1288     		ldrh	r2, [r2]
 2520 00d8 0132     		add	r2, r2, #1
 2521 00da 1A80     		strh	r2, [r3]
 2522              	.L188:
 571:C:/Users/b01252/Documents/Freescale/L4K/software/kinetis_kl46_sc/src/drivers/mcg\mcg.c ****   for (i = 0 ; i < 2000 ; i++)
 2523              		.loc 1 571 0 is_stmt 0
 2524 00dc 3B1C     		mov	r3, r7
 2525 00de 1633     		add	r3, r3, #22
 2526 00e0 0021     		mov	r1, #0
 2527 00e2 5A5E     		ldrsh	r2, [r3, r1]
 2528 00e4 1F4B     		ldr	r3, .L200+12
 2529 00e6 9A42     		cmp	r2, r3
 2530 00e8 EADD     		ble	.L191
 2531 00ea 00E0     		b	.L190
 2532              	.L198:
 2533              		.loc 1 573 0 is_stmt 1
 2534 00ec C046     		mov	r8, r8
 2535              	.L190:
 574:C:/Users/b01252/Documents/Freescale/L4K/software/kinetis_kl46_sc/src/drivers/mcg\mcg.c ****   }
 575:C:/Users/b01252/Documents/Freescale/L4K/software/kinetis_kl46_sc/src/drivers/mcg\mcg.c ****   if (!(MCG_S & MCG_S_IREFST_MASK)) return 0x12; // check bit is really set and return with error i
 2536              		.loc 1 575 0
 2537 00ee 1A4B     		ldr	r3, .L200
 2538 00f0 9B79     		ldrb	r3, [r3, #6]
 2539 00f2 DBB2     		uxtb	r3, r3
 2540 00f4 1A1C     		mov	r2, r3
 2541 00f6 1023     		mov	r3, #16
 2542 00f8 1340     		and	r3, r2
 2543 00fa 01D1     		bne	.L192
 2544              		.loc 1 575 0 is_stmt 0
 2545 00fc 1223     		mov	r3, #18
 2546 00fe 27E0     		b	.L184
 2547              	.L192:
 576:C:/Users/b01252/Documents/Freescale/L4K/software/kinetis_kl46_sc/src/drivers/mcg\mcg.c ****   
 577:C:/Users/b01252/Documents/Freescale/L4K/software/kinetis_kl46_sc/src/drivers/mcg\mcg.c **** // Wait for clock status bits to show clock source is ext ref clk
 578:C:/Users/b01252/Documents/Freescale/L4K/software/kinetis_kl46_sc/src/drivers/mcg\mcg.c ****   for (i = 0 ; i < 2000 ; i++)
 2548              		.loc 1 578 0 is_stmt 1
 2549 0100 3B1C     		mov	r3, r7
 2550 0102 1633     		add	r3, r3, #22
 2551 0104 0022     		mov	r2, #0
 2552 0106 1A80     		strh	r2, [r3]
 2553 0108 0EE0     		b	.L193
 2554              	.L196:
 579:C:/Users/b01252/Documents/Freescale/L4K/software/kinetis_kl46_sc/src/drivers/mcg\mcg.c ****   {
 580:C:/Users/b01252/Documents/Freescale/L4K/software/kinetis_kl46_sc/src/drivers/mcg\mcg.c ****     if (((MCG_S & MCG_S_CLKST_MASK) >> MCG_S_CLKST_SHIFT) == 0x0) break; // jump out early if CLKST
 2555              		.loc 1 580 0
 2556 010a 134B     		ldr	r3, .L200
 2557 010c 9B79     		ldrb	r3, [r3, #6]
 2558 010e DBB2     		uxtb	r3, r3
 2559 0110 1A1C     		mov	r2, r3
 2560 0112 0C23     		mov	r3, #12
 2561 0114 1340     		and	r3, r2
 2562 0116 9B08     		lsr	r3, r3, #2
 2563 0118 0ED0     		beq	.L199
 2564              	.L194:
 578:C:/Users/b01252/Documents/Freescale/L4K/software/kinetis_kl46_sc/src/drivers/mcg\mcg.c ****   for (i = 0 ; i < 2000 ; i++)
 2565              		.loc 1 578 0
 2566 011a 3B1C     		mov	r3, r7
 2567 011c 1633     		add	r3, r3, #22
 2568 011e 3A1C     		mov	r2, r7
 2569 0120 1632     		add	r2, r2, #22
 2570 0122 1288     		ldrh	r2, [r2]
 2571 0124 0132     		add	r2, r2, #1
 2572 0126 1A80     		strh	r2, [r3]
 2573              	.L193:
 578:C:/Users/b01252/Documents/Freescale/L4K/software/kinetis_kl46_sc/src/drivers/mcg\mcg.c ****   for (i = 0 ; i < 2000 ; i++)
 2574              		.loc 1 578 0 is_stmt 0
 2575 0128 3B1C     		mov	r3, r7
 2576 012a 1633     		add	r3, r3, #22
 2577 012c 0021     		mov	r1, #0
 2578 012e 5A5E     		ldrsh	r2, [r3, r1]
 2579 0130 0C4B     		ldr	r3, .L200+12
 2580 0132 9A42     		cmp	r2, r3
 2581 0134 E9DD     		ble	.L196
 2582 0136 00E0     		b	.L195
 2583              	.L199:
 2584              		.loc 1 580 0 is_stmt 1
 2585 0138 C046     		mov	r8, r8
 2586              	.L195:
 581:C:/Users/b01252/Documents/Freescale/L4K/software/kinetis_kl46_sc/src/drivers/mcg\mcg.c ****   }
 582:C:/Users/b01252/Documents/Freescale/L4K/software/kinetis_kl46_sc/src/drivers/mcg\mcg.c ****   if (((MCG_S & MCG_S_CLKST_MASK) >> MCG_S_CLKST_SHIFT) != 0x0) return 0x18; // check EXT CLK is re
 2587              		.loc 1 582 0
 2588 013a 074B     		ldr	r3, .L200
 2589 013c 9B79     		ldrb	r3, [r3, #6]
 2590 013e DBB2     		uxtb	r3, r3
 2591 0140 1A1C     		mov	r2, r3
 2592 0142 0C23     		mov	r3, #12
 2593 0144 1340     		and	r3, r2
 2594 0146 9B08     		lsr	r3, r3, #2
 2595 0148 01D0     		beq	.L197
 2596              		.loc 1 582 0 is_stmt 0
 2597 014a 1823     		mov	r3, #24
 2598 014c 00E0     		b	.L184
 2599              	.L197:
 583:C:/Users/b01252/Documents/Freescale/L4K/software/kinetis_kl46_sc/src/drivers/mcg\mcg.c **** 
 584:C:/Users/b01252/Documents/Freescale/L4K/software/kinetis_kl46_sc/src/drivers/mcg\mcg.c **** // Now in FEI mode
 585:C:/Users/b01252/Documents/Freescale/L4K/software/kinetis_kl46_sc/src/drivers/mcg\mcg.c ****   return mcg_out;
 2600              		.loc 1 585 0 is_stmt 1
 2601 014e 3B69     		ldr	r3, [r7, #16]
 2602              	.L184:
 586:C:/Users/b01252/Documents/Freescale/L4K/software/kinetis_kl46_sc/src/drivers/mcg\mcg.c **** } // fbe_fei
 2603              		.loc 1 586 0
 2604 0150 181C     		mov	r0, r3
 2605 0152 BD46     		mov	sp, r7
 2606 0154 06B0     		add	sp, sp, #24
 2607              		@ sp needed for prologue
 2608 0156 80BD     		pop	{r7, pc}
 2609              	.L201:
 2610              		.align	2
 2611              	.L200:
 2612 0158 00400640 		.word	1074151424
 2613 015c 117A0000 		.word	31249
 2614 0160 97980000 		.word	39063
 2615 0164 CF070000 		.word	1999
 2616              		.cfi_endproc
 2617              	.LFE9:
 2619              		.section	.text.fei_fbe,"ax",%progbits
 2620              		.align	2
 2621              		.global	fei_fbe
 2622              		.code	16
 2623              		.thumb_func
 2625              	fei_fbe:
 2626              	.LFB10:
 587:C:/Users/b01252/Documents/Freescale/L4K/software/kinetis_kl46_sc/src/drivers/mcg\mcg.c **** 
 588:C:/Users/b01252/Documents/Freescale/L4K/software/kinetis_kl46_sc/src/drivers/mcg\mcg.c **** 
 589:C:/Users/b01252/Documents/Freescale/L4K/software/kinetis_kl46_sc/src/drivers/mcg\mcg.c **** /********************************************************************/
 590:C:/Users/b01252/Documents/Freescale/L4K/software/kinetis_kl46_sc/src/drivers/mcg\mcg.c **** /* Functon name : fei_fbe
 591:C:/Users/b01252/Documents/Freescale/L4K/software/kinetis_kl46_sc/src/drivers/mcg\mcg.c ****  *
 592:C:/Users/b01252/Documents/Freescale/L4K/software/kinetis_kl46_sc/src/drivers/mcg\mcg.c ****  * Mode transition: FEI to FBE mode
 593:C:/Users/b01252/Documents/Freescale/L4K/software/kinetis_kl46_sc/src/drivers/mcg\mcg.c ****  *
 594:C:/Users/b01252/Documents/Freescale/L4K/software/kinetis_kl46_sc/src/drivers/mcg\mcg.c ****  * This function transitions the MCG from FEI mode to FBE mode. This is
 595:C:/Users/b01252/Documents/Freescale/L4K/software/kinetis_kl46_sc/src/drivers/mcg\mcg.c ****  * achieved by setting the MCG_C2[LP] bit. There is no status bit to 
 596:C:/Users/b01252/Documents/Freescale/L4K/software/kinetis_kl46_sc/src/drivers/mcg\mcg.c ****  * check so 0 is always returned if the function was called with the MCG
 597:C:/Users/b01252/Documents/Freescale/L4K/software/kinetis_kl46_sc/src/drivers/mcg\mcg.c ****  * in FBI mode. The MCGCLKOUT frequency does not change
 598:C:/Users/b01252/Documents/Freescale/L4K/software/kinetis_kl46_sc/src/drivers/mcg\mcg.c ****  *
 599:C:/Users/b01252/Documents/Freescale/L4K/software/kinetis_kl46_sc/src/drivers/mcg\mcg.c ****  * Parameters: crystal_val - external clock frequency in Hz
 600:C:/Users/b01252/Documents/Freescale/L4K/software/kinetis_kl46_sc/src/drivers/mcg\mcg.c ****  *             hgo_val     - selects whether low power or high gain mode is selected
 601:C:/Users/b01252/Documents/Freescale/L4K/software/kinetis_kl46_sc/src/drivers/mcg\mcg.c ****  *                           for the crystal oscillator. This has no meaning if an 
 602:C:/Users/b01252/Documents/Freescale/L4K/software/kinetis_kl46_sc/src/drivers/mcg\mcg.c ****  *                           external clock is used.
 603:C:/Users/b01252/Documents/Freescale/L4K/software/kinetis_kl46_sc/src/drivers/mcg\mcg.c ****  *             erefs_val   - selects external clock (=0) or crystal osc (=1)
 604:C:/Users/b01252/Documents/Freescale/L4K/software/kinetis_kl46_sc/src/drivers/mcg\mcg.c ****  *
 605:C:/Users/b01252/Documents/Freescale/L4K/software/kinetis_kl46_sc/src/drivers/mcg\mcg.c ****  * Return value : MCGCLKOUT frequency (Hz) or error code
 606:C:/Users/b01252/Documents/Freescale/L4K/software/kinetis_kl46_sc/src/drivers/mcg\mcg.c ****  */
 607:C:/Users/b01252/Documents/Freescale/L4K/software/kinetis_kl46_sc/src/drivers/mcg\mcg.c **** int fei_fbe(int crystal_val, unsigned char hgo_val, unsigned char erefs_val)
 608:C:/Users/b01252/Documents/Freescale/L4K/software/kinetis_kl46_sc/src/drivers/mcg\mcg.c **** {
 2627              		.loc 1 608 0
 2628              		.cfi_startproc
 2629 0000 80B5     		push	{r7, lr}
 2630              	.LCFI30:
 2631              		.cfi_def_cfa_offset 8
 2632              		.cfi_offset 7, -8
 2633              		.cfi_offset 14, -4
 2634 0002 84B0     		sub	sp, sp, #16
 2635              	.LCFI31:
 2636              		.cfi_def_cfa_offset 24
 2637 0004 00AF     		add	r7, sp, #0
 2638              	.LCFI32:
 2639              		.cfi_def_cfa_register 7
 2640 0006 7860     		str	r0, [r7, #4]
 2641 0008 FB1C     		add	r3, r7, #3
 2642 000a 1970     		strb	r1, [r3]
 2643 000c BB1C     		add	r3, r7, #2
 2644 000e 1A70     		strb	r2, [r3]
 609:C:/Users/b01252/Documents/Freescale/L4K/software/kinetis_kl46_sc/src/drivers/mcg\mcg.c ****   unsigned char frdiv_val;
 610:C:/Users/b01252/Documents/Freescale/L4K/software/kinetis_kl46_sc/src/drivers/mcg\mcg.c ****   unsigned char temp_reg;
 611:C:/Users/b01252/Documents/Freescale/L4K/software/kinetis_kl46_sc/src/drivers/mcg\mcg.c ****   short i;
 612:C:/Users/b01252/Documents/Freescale/L4K/software/kinetis_kl46_sc/src/drivers/mcg\mcg.c ****   
 613:C:/Users/b01252/Documents/Freescale/L4K/software/kinetis_kl46_sc/src/drivers/mcg\mcg.c **** // check if in FEI mode
 614:C:/Users/b01252/Documents/Freescale/L4K/software/kinetis_kl46_sc/src/drivers/mcg\mcg.c ****   if (!((((MCG_S & MCG_S_CLKST_MASK) >> MCG_S_CLKST_SHIFT) == 0x0) && // check CLKS mux has selcted
 2645              		.loc 1 614 0
 2646 0010 B44B     		ldr	r3, .L238
 2647 0012 9B79     		ldrb	r3, [r3, #6]
 2648 0014 DBB2     		uxtb	r3, r3
 2649 0016 1A1C     		mov	r2, r3
 2650 0018 0C23     		mov	r3, #12
 2651 001a 1340     		and	r3, r2
 2652 001c 9B08     		lsr	r3, r3, #2
 2653 001e 0DD1     		bne	.L203
 615:C:/Users/b01252/Documents/Freescale/L4K/software/kinetis_kl46_sc/src/drivers/mcg\mcg.c ****       (MCG_S & MCG_S_IREFST_MASK) &&                                  // check FLL ref is internal 
 2654              		.loc 1 615 0
 2655 0020 B04B     		ldr	r3, .L238
 2656 0022 9B79     		ldrb	r3, [r3, #6]
 2657 0024 DBB2     		uxtb	r3, r3
 2658 0026 1A1C     		mov	r2, r3
 2659 0028 1023     		mov	r3, #16
 2660 002a 1340     		and	r3, r2
 614:C:/Users/b01252/Documents/Freescale/L4K/software/kinetis_kl46_sc/src/drivers/mcg\mcg.c ****   if (!((((MCG_S & MCG_S_CLKST_MASK) >> MCG_S_CLKST_SHIFT) == 0x0) && // check CLKS mux has selcted
 2661              		.loc 1 614 0
 2662 002c 06D0     		beq	.L203
 616:C:/Users/b01252/Documents/Freescale/L4K/software/kinetis_kl46_sc/src/drivers/mcg\mcg.c ****       (!(MCG_S & MCG_S_PLLST_MASK))))                                 // check PLLS mux has selecte
 2663              		.loc 1 616 0
 2664 002e AD4B     		ldr	r3, .L238
 2665 0030 9B79     		ldrb	r3, [r3, #6]
 2666 0032 DBB2     		uxtb	r3, r3
 2667 0034 1A1C     		mov	r2, r3
 2668 0036 2023     		mov	r3, #32
 2669 0038 1340     		and	r3, r2
 614:C:/Users/b01252/Documents/Freescale/L4K/software/kinetis_kl46_sc/src/drivers/mcg\mcg.c ****   if (!((((MCG_S & MCG_S_CLKST_MASK) >> MCG_S_CLKST_SHIFT) == 0x0) && // check CLKS mux has selcted
 2670              		.loc 1 614 0
 2671 003a 01D0     		beq	.L204
 2672              	.L203:
 617:C:/Users/b01252/Documents/Freescale/L4K/software/kinetis_kl46_sc/src/drivers/mcg\mcg.c ****   {
 618:C:/Users/b01252/Documents/Freescale/L4K/software/kinetis_kl46_sc/src/drivers/mcg\mcg.c ****     return 0x1;                                                     // return error code
 2673              		.loc 1 618 0
 2674 003c 0123     		mov	r3, #1
 2675 003e 4DE1     		b	.L205
 2676              	.L204:
 619:C:/Users/b01252/Documents/Freescale/L4K/software/kinetis_kl46_sc/src/drivers/mcg\mcg.c ****   }
 620:C:/Users/b01252/Documents/Freescale/L4K/software/kinetis_kl46_sc/src/drivers/mcg\mcg.c **** 
 621:C:/Users/b01252/Documents/Freescale/L4K/software/kinetis_kl46_sc/src/drivers/mcg\mcg.c **** // check external frequency is less than the maximum frequency
 622:C:/Users/b01252/Documents/Freescale/L4K/software/kinetis_kl46_sc/src/drivers/mcg\mcg.c ****   if  (crystal_val > 50000000) {return 0x21;}
 2677              		.loc 1 622 0
 2678 0040 7A68     		ldr	r2, [r7, #4]
 2679 0042 A94B     		ldr	r3, .L238+4
 2680 0044 9A42     		cmp	r2, r3
 2681 0046 01DD     		ble	.L206
 2682              		.loc 1 622 0 is_stmt 0
 2683 0048 2123     		mov	r3, #33
 2684 004a 47E1     		b	.L205
 2685              	.L206:
 623:C:/Users/b01252/Documents/Freescale/L4K/software/kinetis_kl46_sc/src/drivers/mcg\mcg.c ****   
 624:C:/Users/b01252/Documents/Freescale/L4K/software/kinetis_kl46_sc/src/drivers/mcg\mcg.c **** // check crystal frequency is within spec. if crystal osc is being used
 625:C:/Users/b01252/Documents/Freescale/L4K/software/kinetis_kl46_sc/src/drivers/mcg\mcg.c ****   if (erefs_val)
 2686              		.loc 1 625 0 is_stmt 1
 2687 004c BB1C     		add	r3, r7, #2
 2688 004e 1B78     		ldrb	r3, [r3]
 2689 0050 002B     		cmp	r3, #0
 2690 0052 11D0     		beq	.L207
 626:C:/Users/b01252/Documents/Freescale/L4K/software/kinetis_kl46_sc/src/drivers/mcg\mcg.c ****   {
 627:C:/Users/b01252/Documents/Freescale/L4K/software/kinetis_kl46_sc/src/drivers/mcg\mcg.c ****     if ((crystal_val < 30000) ||
 2691              		.loc 1 627 0
 2692 0054 7A68     		ldr	r2, [r7, #4]
 2693 0056 A54B     		ldr	r3, .L238+8
 2694 0058 9A42     		cmp	r2, r3
 2695 005a 0BDD     		ble	.L208
 2696              		.loc 1 627 0 is_stmt 0
 2697 005c 7A68     		ldr	r2, [r7, #4]
 2698 005e A44B     		ldr	r3, .L238+12
 2699 0060 9A42     		cmp	r2, r3
 2700 0062 03DD     		ble	.L209
 628:C:/Users/b01252/Documents/Freescale/L4K/software/kinetis_kl46_sc/src/drivers/mcg\mcg.c ****         ((crystal_val > 40000) && (crystal_val < 3000000)) ||
 2701              		.loc 1 628 0 is_stmt 1
 2702 0064 7A68     		ldr	r2, [r7, #4]
 2703 0066 A34B     		ldr	r3, .L238+16
 2704 0068 9A42     		cmp	r2, r3
 2705 006a 03DD     		ble	.L208
 2706              	.L209:
 2707              		.loc 1 628 0 is_stmt 0
 2708 006c 7A68     		ldr	r2, [r7, #4]
 2709 006e A24B     		ldr	r3, .L238+20
 2710 0070 9A42     		cmp	r2, r3
 2711 0072 01DD     		ble	.L207
 2712              	.L208:
 629:C:/Users/b01252/Documents/Freescale/L4K/software/kinetis_kl46_sc/src/drivers/mcg\mcg.c ****         (crystal_val > 32000000)) {return 0x22;} // return error if one of the available crystal op
 2713              		.loc 1 629 0 is_stmt 1
 2714 0074 2223     		mov	r3, #34
 2715 0076 31E1     		b	.L205
 2716              	.L207:
 630:C:/Users/b01252/Documents/Freescale/L4K/software/kinetis_kl46_sc/src/drivers/mcg\mcg.c ****   }
 631:C:/Users/b01252/Documents/Freescale/L4K/software/kinetis_kl46_sc/src/drivers/mcg\mcg.c **** 
 632:C:/Users/b01252/Documents/Freescale/L4K/software/kinetis_kl46_sc/src/drivers/mcg\mcg.c **** // make sure HGO will never be greater than 1. Could return an error instead if desired.  
 633:C:/Users/b01252/Documents/Freescale/L4K/software/kinetis_kl46_sc/src/drivers/mcg\mcg.c ****   if (hgo_val > 0)
 2717              		.loc 1 633 0
 2718 0078 FB1C     		add	r3, r7, #3
 2719 007a 1B78     		ldrb	r3, [r3]
 2720 007c 002B     		cmp	r3, #0
 2721 007e 02D0     		beq	.L210
 634:C:/Users/b01252/Documents/Freescale/L4K/software/kinetis_kl46_sc/src/drivers/mcg\mcg.c ****   {
 635:C:/Users/b01252/Documents/Freescale/L4K/software/kinetis_kl46_sc/src/drivers/mcg\mcg.c ****     hgo_val = 1; // force hgo_val to 1 if > 0
 2722              		.loc 1 635 0
 2723 0080 FB1C     		add	r3, r7, #3
 2724 0082 0122     		mov	r2, #1
 2725 0084 1A70     		strb	r2, [r3]
 2726              	.L210:
 636:C:/Users/b01252/Documents/Freescale/L4K/software/kinetis_kl46_sc/src/drivers/mcg\mcg.c ****   }
 637:C:/Users/b01252/Documents/Freescale/L4K/software/kinetis_kl46_sc/src/drivers/mcg\mcg.c **** 
 638:C:/Users/b01252/Documents/Freescale/L4K/software/kinetis_kl46_sc/src/drivers/mcg\mcg.c **** // configure the MCG_C2 register
 639:C:/Users/b01252/Documents/Freescale/L4K/software/kinetis_kl46_sc/src/drivers/mcg\mcg.c **** // the RANGE value is determined by the external frequency. Since the RANGE parameter affects the F
 640:C:/Users/b01252/Documents/Freescale/L4K/software/kinetis_kl46_sc/src/drivers/mcg\mcg.c **** // it still needs to be set correctly even if the oscillator is not being used
 641:C:/Users/b01252/Documents/Freescale/L4K/software/kinetis_kl46_sc/src/drivers/mcg\mcg.c ****   temp_reg = MCG_C2;
 2727              		.loc 1 641 0
 2728 0086 974A     		ldr	r2, .L238
 2729 0088 3B1C     		mov	r3, r7
 2730 008a 0E33     		add	r3, r3, #14
 2731 008c 5278     		ldrb	r2, [r2, #1]
 2732 008e 1A70     		strb	r2, [r3]
 642:C:/Users/b01252/Documents/Freescale/L4K/software/kinetis_kl46_sc/src/drivers/mcg\mcg.c ****   temp_reg &= ~(MCG_C2_RANGE0_MASK | MCG_C2_HGO0_MASK | MCG_C2_EREFS0_MASK); // clear fields before
 2733              		.loc 1 642 0
 2734 0090 3B1C     		mov	r3, r7
 2735 0092 0E33     		add	r3, r3, #14
 2736 0094 3A1C     		mov	r2, r7
 2737 0096 0E32     		add	r2, r2, #14
 2738 0098 1278     		ldrb	r2, [r2]
 2739 009a 3C21     		mov	r1, #60
 2740 009c 8A43     		bic	r2, r1
 2741 009e 1A70     		strb	r2, [r3]
 643:C:/Users/b01252/Documents/Freescale/L4K/software/kinetis_kl46_sc/src/drivers/mcg\mcg.c ****   if (crystal_val <= 40000)
 2742              		.loc 1 643 0
 2743 00a0 7A68     		ldr	r2, [r7, #4]
 2744 00a2 934B     		ldr	r3, .L238+12
 2745 00a4 9A42     		cmp	r2, r3
 2746 00a6 11DC     		bgt	.L211
 644:C:/Users/b01252/Documents/Freescale/L4K/software/kinetis_kl46_sc/src/drivers/mcg\mcg.c ****   {
 645:C:/Users/b01252/Documents/Freescale/L4K/software/kinetis_kl46_sc/src/drivers/mcg\mcg.c ****     temp_reg |= (MCG_C2_RANGE0(0) | (hgo_val << MCG_C2_HGO0_SHIFT) | (erefs_val << MCG_C2_EREFS0_SH
 2747              		.loc 1 645 0
 2748 00a8 FB1C     		add	r3, r7, #3
 2749 00aa 1B78     		ldrb	r3, [r3]
 2750 00ac DB00     		lsl	r3, r3, #3
 2751 00ae DAB2     		uxtb	r2, r3
 2752 00b0 BB1C     		add	r3, r7, #2
 2753 00b2 1B78     		ldrb	r3, [r3]
 2754 00b4 9B00     		lsl	r3, r3, #2
 2755 00b6 DBB2     		uxtb	r3, r3
 2756 00b8 1343     		orr	r3, r2
 2757 00ba D9B2     		uxtb	r1, r3
 2758 00bc 3B1C     		mov	r3, r7
 2759 00be 0E33     		add	r3, r3, #14
 2760 00c0 3A1C     		mov	r2, r7
 2761 00c2 0E32     		add	r2, r2, #14
 2762 00c4 1278     		ldrb	r2, [r2]
 2763 00c6 0A43     		orr	r2, r1
 2764 00c8 1A70     		strb	r2, [r3]
 2765 00ca 2CE0     		b	.L212
 2766              	.L211:
 646:C:/Users/b01252/Documents/Freescale/L4K/software/kinetis_kl46_sc/src/drivers/mcg\mcg.c ****   }
 647:C:/Users/b01252/Documents/Freescale/L4K/software/kinetis_kl46_sc/src/drivers/mcg\mcg.c ****   else if (crystal_val <= 8000000)
 2767              		.loc 1 647 0
 2768 00cc 7A68     		ldr	r2, [r7, #4]
 2769 00ce 8B4B     		ldr	r3, .L238+24
 2770 00d0 9A42     		cmp	r2, r3
 2771 00d2 14DC     		bgt	.L213
 648:C:/Users/b01252/Documents/Freescale/L4K/software/kinetis_kl46_sc/src/drivers/mcg\mcg.c ****   {
 649:C:/Users/b01252/Documents/Freescale/L4K/software/kinetis_kl46_sc/src/drivers/mcg\mcg.c ****     temp_reg |= (MCG_C2_RANGE0(1) | (hgo_val << MCG_C2_HGO0_SHIFT) | (erefs_val << MCG_C2_EREFS0_SH
 2772              		.loc 1 649 0
 2773 00d4 FB1C     		add	r3, r7, #3
 2774 00d6 1B78     		ldrb	r3, [r3]
 2775 00d8 DB00     		lsl	r3, r3, #3
 2776 00da DAB2     		uxtb	r2, r3
 2777 00dc BB1C     		add	r3, r7, #2
 2778 00de 1B78     		ldrb	r3, [r3]
 2779 00e0 9B00     		lsl	r3, r3, #2
 2780 00e2 DBB2     		uxtb	r3, r3
 2781 00e4 1343     		orr	r3, r2
 2782 00e6 DAB2     		uxtb	r2, r3
 2783 00e8 3B1C     		mov	r3, r7
 2784 00ea 0E33     		add	r3, r3, #14
 2785 00ec 1B78     		ldrb	r3, [r3]
 2786 00ee 1343     		orr	r3, r2
 2787 00f0 DAB2     		uxtb	r2, r3
 2788 00f2 3B1C     		mov	r3, r7
 2789 00f4 0E33     		add	r3, r3, #14
 2790 00f6 1021     		mov	r1, #16
 2791 00f8 0A43     		orr	r2, r1
 2792 00fa 1A70     		strb	r2, [r3]
 2793 00fc 13E0     		b	.L212
 2794              	.L213:
 650:C:/Users/b01252/Documents/Freescale/L4K/software/kinetis_kl46_sc/src/drivers/mcg\mcg.c ****   }
 651:C:/Users/b01252/Documents/Freescale/L4K/software/kinetis_kl46_sc/src/drivers/mcg\mcg.c ****   else
 652:C:/Users/b01252/Documents/Freescale/L4K/software/kinetis_kl46_sc/src/drivers/mcg\mcg.c ****   {
 653:C:/Users/b01252/Documents/Freescale/L4K/software/kinetis_kl46_sc/src/drivers/mcg\mcg.c ****     temp_reg |= (MCG_C2_RANGE0(2) | (hgo_val << MCG_C2_HGO0_SHIFT) | (erefs_val << MCG_C2_EREFS0_SH
 2795              		.loc 1 653 0
 2796 00fe FB1C     		add	r3, r7, #3
 2797 0100 1B78     		ldrb	r3, [r3]
 2798 0102 DB00     		lsl	r3, r3, #3
 2799 0104 DAB2     		uxtb	r2, r3
 2800 0106 BB1C     		add	r3, r7, #2
 2801 0108 1B78     		ldrb	r3, [r3]
 2802 010a 9B00     		lsl	r3, r3, #2
 2803 010c DBB2     		uxtb	r3, r3
 2804 010e 1343     		orr	r3, r2
 2805 0110 DAB2     		uxtb	r2, r3
 2806 0112 3B1C     		mov	r3, r7
 2807 0114 0E33     		add	r3, r3, #14
 2808 0116 1B78     		ldrb	r3, [r3]
 2809 0118 1343     		orr	r3, r2
 2810 011a DAB2     		uxtb	r2, r3
 2811 011c 3B1C     		mov	r3, r7
 2812 011e 0E33     		add	r3, r3, #14
 2813 0120 2021     		mov	r1, #32
 2814 0122 0A43     		orr	r2, r1
 2815 0124 1A70     		strb	r2, [r3]
 2816              	.L212:
 654:C:/Users/b01252/Documents/Freescale/L4K/software/kinetis_kl46_sc/src/drivers/mcg\mcg.c ****   }
 655:C:/Users/b01252/Documents/Freescale/L4K/software/kinetis_kl46_sc/src/drivers/mcg\mcg.c ****   MCG_C2 = temp_reg;
 2817              		.loc 1 655 0
 2818 0126 6F4B     		ldr	r3, .L238
 2819 0128 3A1C     		mov	r2, r7
 2820 012a 0E32     		add	r2, r2, #14
 2821 012c 1278     		ldrb	r2, [r2]
 2822 012e 5A70     		strb	r2, [r3, #1]
 656:C:/Users/b01252/Documents/Freescale/L4K/software/kinetis_kl46_sc/src/drivers/mcg\mcg.c **** // determine FRDIV based on reference clock frequency
 657:C:/Users/b01252/Documents/Freescale/L4K/software/kinetis_kl46_sc/src/drivers/mcg\mcg.c **** // since the external frequency has already been checked only the maximum frequency for each FRDIV 
 658:C:/Users/b01252/Documents/Freescale/L4K/software/kinetis_kl46_sc/src/drivers/mcg\mcg.c ****   if (crystal_val <= 1250000) {frdiv_val = 0;}
 2823              		.loc 1 658 0
 2824 0130 7A68     		ldr	r2, [r7, #4]
 2825 0132 734B     		ldr	r3, .L238+28
 2826 0134 9A42     		cmp	r2, r3
 2827 0136 04DC     		bgt	.L214
 2828              		.loc 1 658 0 is_stmt 0
 2829 0138 3B1C     		mov	r3, r7
 2830 013a 0F33     		add	r3, r3, #15
 2831 013c 0022     		mov	r2, #0
 2832 013e 1A70     		strb	r2, [r3]
 2833 0140 27E0     		b	.L215
 2834              	.L214:
 659:C:/Users/b01252/Documents/Freescale/L4K/software/kinetis_kl46_sc/src/drivers/mcg\mcg.c ****   else if (crystal_val <= 2500000) {frdiv_val = 1;}
 2835              		.loc 1 659 0 is_stmt 1
 2836 0142 7A68     		ldr	r2, [r7, #4]
 2837 0144 6F4B     		ldr	r3, .L238+32
 2838 0146 9A42     		cmp	r2, r3
 2839 0148 04DC     		bgt	.L216
 2840              		.loc 1 659 0 is_stmt 0
 2841 014a 3B1C     		mov	r3, r7
 2842 014c 0F33     		add	r3, r3, #15
 2843 014e 0122     		mov	r2, #1
 2844 0150 1A70     		strb	r2, [r3]
 2845 0152 1EE0     		b	.L215
 2846              	.L216:
 660:C:/Users/b01252/Documents/Freescale/L4K/software/kinetis_kl46_sc/src/drivers/mcg\mcg.c ****   else if (crystal_val <= 5000000) {frdiv_val = 2;}
 2847              		.loc 1 660 0 is_stmt 1
 2848 0154 7A68     		ldr	r2, [r7, #4]
 2849 0156 6C4B     		ldr	r3, .L238+36
 2850 0158 9A42     		cmp	r2, r3
 2851 015a 04DC     		bgt	.L217
 2852              		.loc 1 660 0 is_stmt 0
 2853 015c 3B1C     		mov	r3, r7
 2854 015e 0F33     		add	r3, r3, #15
 2855 0160 0222     		mov	r2, #2
 2856 0162 1A70     		strb	r2, [r3]
 2857 0164 15E0     		b	.L215
 2858              	.L217:
 661:C:/Users/b01252/Documents/Freescale/L4K/software/kinetis_kl46_sc/src/drivers/mcg\mcg.c ****   else if (crystal_val <= 10000000) {frdiv_val = 3;}
 2859              		.loc 1 661 0 is_stmt 1
 2860 0166 7A68     		ldr	r2, [r7, #4]
 2861 0168 684B     		ldr	r3, .L238+40
 2862 016a 9A42     		cmp	r2, r3
 2863 016c 04DC     		bgt	.L218
 2864              		.loc 1 661 0 is_stmt 0
 2865 016e 3B1C     		mov	r3, r7
 2866 0170 0F33     		add	r3, r3, #15
 2867 0172 0322     		mov	r2, #3
 2868 0174 1A70     		strb	r2, [r3]
 2869 0176 0CE0     		b	.L215
 2870              	.L218:
 662:C:/Users/b01252/Documents/Freescale/L4K/software/kinetis_kl46_sc/src/drivers/mcg\mcg.c ****   else if (crystal_val <= 20000000) {frdiv_val = 4;}
 2871              		.loc 1 662 0 is_stmt 1
 2872 0178 7A68     		ldr	r2, [r7, #4]
 2873 017a 654B     		ldr	r3, .L238+44
 2874 017c 9A42     		cmp	r2, r3
 2875 017e 04DC     		bgt	.L219
 2876              		.loc 1 662 0 is_stmt 0
 2877 0180 3B1C     		mov	r3, r7
 2878 0182 0F33     		add	r3, r3, #15
 2879 0184 0422     		mov	r2, #4
 2880 0186 1A70     		strb	r2, [r3]
 2881 0188 03E0     		b	.L215
 2882              	.L219:
 663:C:/Users/b01252/Documents/Freescale/L4K/software/kinetis_kl46_sc/src/drivers/mcg\mcg.c ****   else {frdiv_val = 5;}
 2883              		.loc 1 663 0 is_stmt 1
 2884 018a 3B1C     		mov	r3, r7
 2885 018c 0F33     		add	r3, r3, #15
 2886 018e 0522     		mov	r2, #5
 2887 0190 1A70     		strb	r2, [r3]
 2888              	.L215:
 664:C:/Users/b01252/Documents/Freescale/L4K/software/kinetis_kl46_sc/src/drivers/mcg\mcg.c ****   
 665:C:/Users/b01252/Documents/Freescale/L4K/software/kinetis_kl46_sc/src/drivers/mcg\mcg.c **** // Select external oscilator and Reference Divider and clear IREFS to start ext osc
 666:C:/Users/b01252/Documents/Freescale/L4K/software/kinetis_kl46_sc/src/drivers/mcg\mcg.c **** // If IRCLK is required it must be enabled outside of this driver, existing state will be maintaine
 667:C:/Users/b01252/Documents/Freescale/L4K/software/kinetis_kl46_sc/src/drivers/mcg\mcg.c **** // CLKS=2, FRDIV=frdiv_val, IREFS=0, IRCLKEN=0, IREFSTEN=0
 668:C:/Users/b01252/Documents/Freescale/L4K/software/kinetis_kl46_sc/src/drivers/mcg\mcg.c ****   temp_reg = MCG_C1;
 2889              		.loc 1 668 0
 2890 0192 544A     		ldr	r2, .L238
 2891 0194 3B1C     		mov	r3, r7
 2892 0196 0E33     		add	r3, r3, #14
 2893 0198 1278     		ldrb	r2, [r2]
 2894 019a 1A70     		strb	r2, [r3]
 669:C:/Users/b01252/Documents/Freescale/L4K/software/kinetis_kl46_sc/src/drivers/mcg\mcg.c ****   temp_reg &= ~(MCG_C1_CLKS_MASK | MCG_C1_FRDIV_MASK | MCG_C1_IREFS_MASK); // Clear values in these
 2895              		.loc 1 669 0
 2896 019c 3B1C     		mov	r3, r7
 2897 019e 0E33     		add	r3, r3, #14
 2898 01a0 3A1C     		mov	r2, r7
 2899 01a2 0E32     		add	r2, r2, #14
 2900 01a4 1178     		ldrb	r1, [r2]
 2901 01a6 0322     		mov	r2, #3
 2902 01a8 0A40     		and	r2, r1
 2903 01aa 1A70     		strb	r2, [r3]
 670:C:/Users/b01252/Documents/Freescale/L4K/software/kinetis_kl46_sc/src/drivers/mcg\mcg.c ****   temp_reg |= (MCG_C1_CLKS(2) | MCG_C1_FRDIV(frdiv_val)); // Set the required CLKS and FRDIV values
 2904              		.loc 1 670 0
 2905 01ac 3B1C     		mov	r3, r7
 2906 01ae 0F33     		add	r3, r3, #15
 2907 01b0 1B78     		ldrb	r3, [r3]
 2908 01b2 DB00     		lsl	r3, r3, #3
 2909 01b4 DAB2     		uxtb	r2, r3
 2910 01b6 3823     		mov	r3, #56
 2911 01b8 1340     		and	r3, r2
 2912 01ba DAB2     		uxtb	r2, r3
 2913 01bc 3B1C     		mov	r3, r7
 2914 01be 0E33     		add	r3, r3, #14
 2915 01c0 1B78     		ldrb	r3, [r3]
 2916 01c2 1343     		orr	r3, r2
 2917 01c4 DAB2     		uxtb	r2, r3
 2918 01c6 3B1C     		mov	r3, r7
 2919 01c8 0E33     		add	r3, r3, #14
 2920 01ca 8021     		mov	r1, #128
 2921 01cc 4942     		neg	r1, r1
 2922 01ce 0A43     		orr	r2, r1
 2923 01d0 1A70     		strb	r2, [r3]
 671:C:/Users/b01252/Documents/Freescale/L4K/software/kinetis_kl46_sc/src/drivers/mcg\mcg.c ****   MCG_C1 = temp_reg;
 2924              		.loc 1 671 0
 2925 01d2 444B     		ldr	r3, .L238
 2926 01d4 3A1C     		mov	r2, r7
 2927 01d6 0E32     		add	r2, r2, #14
 2928 01d8 1278     		ldrb	r2, [r2]
 2929 01da 1A70     		strb	r2, [r3]
 672:C:/Users/b01252/Documents/Freescale/L4K/software/kinetis_kl46_sc/src/drivers/mcg\mcg.c **** 
 673:C:/Users/b01252/Documents/Freescale/L4K/software/kinetis_kl46_sc/src/drivers/mcg\mcg.c **** // if the external oscillator is used need to wait for OSCINIT to set
 674:C:/Users/b01252/Documents/Freescale/L4K/software/kinetis_kl46_sc/src/drivers/mcg\mcg.c ****   if (erefs_val)
 2930              		.loc 1 674 0
 2931 01dc BB1C     		add	r3, r7, #2
 2932 01de 1B78     		ldrb	r3, [r3]
 2933 01e0 002B     		cmp	r3, #0
 2934 01e2 24D0     		beq	.L220
 675:C:/Users/b01252/Documents/Freescale/L4K/software/kinetis_kl46_sc/src/drivers/mcg\mcg.c ****   {
 676:C:/Users/b01252/Documents/Freescale/L4K/software/kinetis_kl46_sc/src/drivers/mcg\mcg.c ****     for (i = 0 ; i < 10000 ; i++)
 2935              		.loc 1 676 0
 2936 01e4 3B1C     		mov	r3, r7
 2937 01e6 0C33     		add	r3, r3, #12
 2938 01e8 0022     		mov	r2, #0
 2939 01ea 1A80     		strh	r2, [r3]
 2940 01ec 0DE0     		b	.L221
 2941              	.L224:
 677:C:/Users/b01252/Documents/Freescale/L4K/software/kinetis_kl46_sc/src/drivers/mcg\mcg.c ****     {
 678:C:/Users/b01252/Documents/Freescale/L4K/software/kinetis_kl46_sc/src/drivers/mcg\mcg.c ****       if (MCG_S & MCG_S_OSCINIT0_MASK) break; // jump out early if OSCINIT sets before loop finishe
 2942              		.loc 1 678 0
 2943 01ee 3D4B     		ldr	r3, .L238
 2944 01f0 9B79     		ldrb	r3, [r3, #6]
 2945 01f2 DBB2     		uxtb	r3, r3
 2946 01f4 1A1C     		mov	r2, r3
 2947 01f6 0223     		mov	r3, #2
 2948 01f8 1340     		and	r3, r2
 2949 01fa 0ED1     		bne	.L235
 2950              	.L222:
 676:C:/Users/b01252/Documents/Freescale/L4K/software/kinetis_kl46_sc/src/drivers/mcg\mcg.c ****     for (i = 0 ; i < 10000 ; i++)
 2951              		.loc 1 676 0
 2952 01fc 3B1C     		mov	r3, r7
 2953 01fe 0C33     		add	r3, r3, #12
 2954 0200 3A1C     		mov	r2, r7
 2955 0202 0C32     		add	r2, r2, #12
 2956 0204 1288     		ldrh	r2, [r2]
 2957 0206 0132     		add	r2, r2, #1
 2958 0208 1A80     		strh	r2, [r3]
 2959              	.L221:
 676:C:/Users/b01252/Documents/Freescale/L4K/software/kinetis_kl46_sc/src/drivers/mcg\mcg.c ****     for (i = 0 ; i < 10000 ; i++)
 2960              		.loc 1 676 0 is_stmt 0
 2961 020a 3B1C     		mov	r3, r7
 2962 020c 0C33     		add	r3, r3, #12
 2963 020e 0021     		mov	r1, #0
 2964 0210 5A5E     		ldrsh	r2, [r3, r1]
 2965 0212 404B     		ldr	r3, .L238+48
 2966 0214 9A42     		cmp	r2, r3
 2967 0216 EADD     		ble	.L224
 2968 0218 00E0     		b	.L223
 2969              	.L235:
 2970              		.loc 1 678 0 is_stmt 1
 2971 021a C046     		mov	r8, r8
 2972              	.L223:
 679:C:/Users/b01252/Documents/Freescale/L4K/software/kinetis_kl46_sc/src/drivers/mcg\mcg.c ****     }
 680:C:/Users/b01252/Documents/Freescale/L4K/software/kinetis_kl46_sc/src/drivers/mcg\mcg.c ****     if (!(MCG_S & MCG_S_OSCINIT0_MASK)) return 0x23; // check bit is really set and return with err
 2973              		.loc 1 680 0
 2974 021c 314B     		ldr	r3, .L238
 2975 021e 9B79     		ldrb	r3, [r3, #6]
 2976 0220 DBB2     		uxtb	r3, r3
 2977 0222 1A1C     		mov	r2, r3
 2978 0224 0223     		mov	r3, #2
 2979 0226 1340     		and	r3, r2
 2980 0228 01D1     		bne	.L220
 2981              		.loc 1 680 0 is_stmt 0
 2982 022a 2323     		mov	r3, #35
 2983 022c 56E0     		b	.L205
 2984              	.L220:
 681:C:/Users/b01252/Documents/Freescale/L4K/software/kinetis_kl46_sc/src/drivers/mcg\mcg.c ****   }
 682:C:/Users/b01252/Documents/Freescale/L4K/software/kinetis_kl46_sc/src/drivers/mcg\mcg.c **** 
 683:C:/Users/b01252/Documents/Freescale/L4K/software/kinetis_kl46_sc/src/drivers/mcg\mcg.c **** // wait for Reference clock Status bit to clear
 684:C:/Users/b01252/Documents/Freescale/L4K/software/kinetis_kl46_sc/src/drivers/mcg\mcg.c ****   for (i = 0 ; i < 2000 ; i++)
 2985              		.loc 1 684 0 is_stmt 1
 2986 022e 3B1C     		mov	r3, r7
 2987 0230 0C33     		add	r3, r3, #12
 2988 0232 0022     		mov	r2, #0
 2989 0234 1A80     		strh	r2, [r3]
 2990 0236 0DE0     		b	.L225
 2991              	.L228:
 685:C:/Users/b01252/Documents/Freescale/L4K/software/kinetis_kl46_sc/src/drivers/mcg\mcg.c ****   {
 686:C:/Users/b01252/Documents/Freescale/L4K/software/kinetis_kl46_sc/src/drivers/mcg\mcg.c ****     if (!(MCG_S & MCG_S_IREFST_MASK)) break; // jump out early if IREFST clears before loop finishe
 2992              		.loc 1 686 0
 2993 0238 2A4B     		ldr	r3, .L238
 2994 023a 9B79     		ldrb	r3, [r3, #6]
 2995 023c DBB2     		uxtb	r3, r3
 2996 023e 1A1C     		mov	r2, r3
 2997 0240 1023     		mov	r3, #16
 2998 0242 1340     		and	r3, r2
 2999 0244 0ED0     		beq	.L236
 3000              	.L226:
 684:C:/Users/b01252/Documents/Freescale/L4K/software/kinetis_kl46_sc/src/drivers/mcg\mcg.c ****   for (i = 0 ; i < 2000 ; i++)
 3001              		.loc 1 684 0
 3002 0246 3B1C     		mov	r3, r7
 3003 0248 0C33     		add	r3, r3, #12
 3004 024a 3A1C     		mov	r2, r7
 3005 024c 0C32     		add	r2, r2, #12
 3006 024e 1288     		ldrh	r2, [r2]
 3007 0250 0132     		add	r2, r2, #1
 3008 0252 1A80     		strh	r2, [r3]
 3009              	.L225:
 684:C:/Users/b01252/Documents/Freescale/L4K/software/kinetis_kl46_sc/src/drivers/mcg\mcg.c ****   for (i = 0 ; i < 2000 ; i++)
 3010              		.loc 1 684 0 is_stmt 0
 3011 0254 3B1C     		mov	r3, r7
 3012 0256 0C33     		add	r3, r3, #12
 3013 0258 0021     		mov	r1, #0
 3014 025a 5A5E     		ldrsh	r2, [r3, r1]
 3015 025c 2E4B     		ldr	r3, .L238+52
 3016 025e 9A42     		cmp	r2, r3
 3017 0260 EADD     		ble	.L228
 3018 0262 00E0     		b	.L227
 3019              	.L236:
 3020              		.loc 1 686 0 is_stmt 1
 3021 0264 C046     		mov	r8, r8
 3022              	.L227:
 687:C:/Users/b01252/Documents/Freescale/L4K/software/kinetis_kl46_sc/src/drivers/mcg\mcg.c ****   }
 688:C:/Users/b01252/Documents/Freescale/L4K/software/kinetis_kl46_sc/src/drivers/mcg\mcg.c ****   if (MCG_S & MCG_S_IREFST_MASK) return 0x11; // check bit is really clear and return with error if
 3023              		.loc 1 688 0
 3024 0266 1F4B     		ldr	r3, .L238
 3025 0268 9B79     		ldrb	r3, [r3, #6]
 3026 026a DBB2     		uxtb	r3, r3
 3027 026c 1A1C     		mov	r2, r3
 3028 026e 1023     		mov	r3, #16
 3029 0270 1340     		and	r3, r2
 3030 0272 01D0     		beq	.L229
 3031              		.loc 1 688 0 is_stmt 0
 3032 0274 1123     		mov	r3, #17
 3033 0276 31E0     		b	.L205
 3034              	.L229:
 689:C:/Users/b01252/Documents/Freescale/L4K/software/kinetis_kl46_sc/src/drivers/mcg\mcg.c ****   
 690:C:/Users/b01252/Documents/Freescale/L4K/software/kinetis_kl46_sc/src/drivers/mcg\mcg.c **** // Wait for clock status bits to show clock source is ext ref clk
 691:C:/Users/b01252/Documents/Freescale/L4K/software/kinetis_kl46_sc/src/drivers/mcg\mcg.c ****   for (i = 0 ; i < 2000 ; i++)
 3035              		.loc 1 691 0 is_stmt 1
 3036 0278 3B1C     		mov	r3, r7
 3037 027a 0C33     		add	r3, r3, #12
 3038 027c 0022     		mov	r2, #0
 3039 027e 1A80     		strh	r2, [r3]
 3040 0280 0FE0     		b	.L230
 3041              	.L233:
 692:C:/Users/b01252/Documents/Freescale/L4K/software/kinetis_kl46_sc/src/drivers/mcg\mcg.c ****   {
 693:C:/Users/b01252/Documents/Freescale/L4K/software/kinetis_kl46_sc/src/drivers/mcg\mcg.c ****     if (((MCG_S & MCG_S_CLKST_MASK) >> MCG_S_CLKST_SHIFT) == 0x2) break; // jump out early if CLKST
 3042              		.loc 1 693 0
 3043 0282 184B     		ldr	r3, .L238
 3044 0284 9B79     		ldrb	r3, [r3, #6]
 3045 0286 DBB2     		uxtb	r3, r3
 3046 0288 1A1C     		mov	r2, r3
 3047 028a 0C23     		mov	r3, #12
 3048 028c 1340     		and	r3, r2
 3049 028e 9B08     		lsr	r3, r3, #2
 3050 0290 022B     		cmp	r3, #2
 3051 0292 0ED0     		beq	.L237
 3052              	.L231:
 691:C:/Users/b01252/Documents/Freescale/L4K/software/kinetis_kl46_sc/src/drivers/mcg\mcg.c ****   for (i = 0 ; i < 2000 ; i++)
 3053              		.loc 1 691 0
 3054 0294 3B1C     		mov	r3, r7
 3055 0296 0C33     		add	r3, r3, #12
 3056 0298 3A1C     		mov	r2, r7
 3057 029a 0C32     		add	r2, r2, #12
 3058 029c 1288     		ldrh	r2, [r2]
 3059 029e 0132     		add	r2, r2, #1
 3060 02a0 1A80     		strh	r2, [r3]
 3061              	.L230:
 691:C:/Users/b01252/Documents/Freescale/L4K/software/kinetis_kl46_sc/src/drivers/mcg\mcg.c ****   for (i = 0 ; i < 2000 ; i++)
 3062              		.loc 1 691 0 is_stmt 0
 3063 02a2 3B1C     		mov	r3, r7
 3064 02a4 0C33     		add	r3, r3, #12
 3065 02a6 0021     		mov	r1, #0
 3066 02a8 5A5E     		ldrsh	r2, [r3, r1]
 3067 02aa 1B4B     		ldr	r3, .L238+52
 3068 02ac 9A42     		cmp	r2, r3
 3069 02ae E8DD     		ble	.L233
 3070 02b0 00E0     		b	.L232
 3071              	.L237:
 3072              		.loc 1 693 0 is_stmt 1
 3073 02b2 C046     		mov	r8, r8
 3074              	.L232:
 694:C:/Users/b01252/Documents/Freescale/L4K/software/kinetis_kl46_sc/src/drivers/mcg\mcg.c ****   }
 695:C:/Users/b01252/Documents/Freescale/L4K/software/kinetis_kl46_sc/src/drivers/mcg\mcg.c ****   if (((MCG_S & MCG_S_CLKST_MASK) >> MCG_S_CLKST_SHIFT) != 0x2) return 0x1A; // check EXT CLK is re
 3075              		.loc 1 695 0
 3076 02b4 0B4B     		ldr	r3, .L238
 3077 02b6 9B79     		ldrb	r3, [r3, #6]
 3078 02b8 DBB2     		uxtb	r3, r3
 3079 02ba 1A1C     		mov	r2, r3
 3080 02bc 0C23     		mov	r3, #12
 3081 02be 1340     		and	r3, r2
 3082 02c0 9B08     		lsr	r3, r3, #2
 3083 02c2 022B     		cmp	r3, #2
 3084 02c4 01D0     		beq	.L234
 3085              		.loc 1 695 0 is_stmt 0
 3086 02c6 1A23     		mov	r3, #26
 3087 02c8 08E0     		b	.L205
 3088              	.L234:
 696:C:/Users/b01252/Documents/Freescale/L4K/software/kinetis_kl46_sc/src/drivers/mcg\mcg.c ****  
 697:C:/Users/b01252/Documents/Freescale/L4K/software/kinetis_kl46_sc/src/drivers/mcg\mcg.c **** // Now in FBE  
 698:C:/Users/b01252/Documents/Freescale/L4K/software/kinetis_kl46_sc/src/drivers/mcg\mcg.c **** // It is recommended that the clock monitor is enabled when using an external clock as the clock so
 699:C:/Users/b01252/Documents/Freescale/L4K/software/kinetis_kl46_sc/src/drivers/mcg\mcg.c **** // It is enabled here but can be removed if this is not required.
 700:C:/Users/b01252/Documents/Freescale/L4K/software/kinetis_kl46_sc/src/drivers/mcg\mcg.c ****   MCG_C6 |= MCG_C6_CME0_MASK;
 3089              		.loc 1 700 0 is_stmt 1
 3090 02ca 064B     		ldr	r3, .L238
 3091 02cc 054A     		ldr	r2, .L238
 3092 02ce 5279     		ldrb	r2, [r2, #5]
 3093 02d0 D2B2     		uxtb	r2, r2
 3094 02d2 2021     		mov	r1, #32
 3095 02d4 0A43     		orr	r2, r1
 3096 02d6 D2B2     		uxtb	r2, r2
 3097 02d8 5A71     		strb	r2, [r3, #5]
 701:C:/Users/b01252/Documents/Freescale/L4K/software/kinetis_kl46_sc/src/drivers/mcg\mcg.c ****   
 702:C:/Users/b01252/Documents/Freescale/L4K/software/kinetis_kl46_sc/src/drivers/mcg\mcg.c ****   return crystal_val; // MCGOUT frequency equals external clock frequency
 3098              		.loc 1 702 0
 3099 02da 7B68     		ldr	r3, [r7, #4]
 3100              	.L205:
 703:C:/Users/b01252/Documents/Freescale/L4K/software/kinetis_kl46_sc/src/drivers/mcg\mcg.c **** } // fei_fbe
 3101              		.loc 1 703 0
 3102 02dc 181C     		mov	r0, r3
 3103 02de BD46     		mov	sp, r7
 3104 02e0 04B0     		add	sp, sp, #16
 3105              		@ sp needed for prologue
 3106 02e2 80BD     		pop	{r7, pc}
 3107              	.L239:
 3108              		.align	2
 3109              	.L238:
 3110 02e4 00400640 		.word	1074151424
 3111 02e8 80F0FA02 		.word	50000000
 3112 02ec 2F750000 		.word	29999
 3113 02f0 409C0000 		.word	40000
 3114 02f4 BFC62D00 		.word	2999999
 3115 02f8 0048E801 		.word	32000000
 3116 02fc 00127A00 		.word	8000000
 3117 0300 D0121300 		.word	1250000
 3118 0304 A0252600 		.word	2500000
 3119 0308 404B4C00 		.word	5000000
 3120 030c 80969800 		.word	10000000
 3121 0310 002D3101 		.word	20000000
 3122 0314 0F270000 		.word	9999
 3123 0318 CF070000 		.word	1999
 3124              		.cfi_endproc
 3125              	.LFE10:
 3127              		.section	.text.fbe_fee,"ax",%progbits
 3128              		.align	2
 3129              		.global	fbe_fee
 3130              		.code	16
 3131              		.thumb_func
 3133              	fbe_fee:
 3134              	.LFB11:
 704:C:/Users/b01252/Documents/Freescale/L4K/software/kinetis_kl46_sc/src/drivers/mcg\mcg.c **** 
 705:C:/Users/b01252/Documents/Freescale/L4K/software/kinetis_kl46_sc/src/drivers/mcg\mcg.c **** 
 706:C:/Users/b01252/Documents/Freescale/L4K/software/kinetis_kl46_sc/src/drivers/mcg\mcg.c **** int fbe_fee(int crystal_val)
 707:C:/Users/b01252/Documents/Freescale/L4K/software/kinetis_kl46_sc/src/drivers/mcg\mcg.c **** {
 3135              		.loc 1 707 0
 3136              		.cfi_startproc
 3137 0000 80B5     		push	{r7, lr}
 3138              	.LCFI33:
 3139              		.cfi_def_cfa_offset 8
 3140              		.cfi_offset 7, -8
 3141              		.cfi_offset 14, -4
 3142 0002 84B0     		sub	sp, sp, #16
 3143              	.LCFI34:
 3144              		.cfi_def_cfa_offset 24
 3145 0004 00AF     		add	r7, sp, #0
 3146              	.LCFI35:
 3147              		.cfi_def_cfa_register 7
 3148 0006 7860     		str	r0, [r7, #4]
 708:C:/Users/b01252/Documents/Freescale/L4K/software/kinetis_kl46_sc/src/drivers/mcg\mcg.c ****   short i, fll_ref_freq;
 709:C:/Users/b01252/Documents/Freescale/L4K/software/kinetis_kl46_sc/src/drivers/mcg\mcg.c ****   int mcg_out;
 710:C:/Users/b01252/Documents/Freescale/L4K/software/kinetis_kl46_sc/src/drivers/mcg\mcg.c **** 
 711:C:/Users/b01252/Documents/Freescale/L4K/software/kinetis_kl46_sc/src/drivers/mcg\mcg.c **** // Check MCG is in FBE mode
 712:C:/Users/b01252/Documents/Freescale/L4K/software/kinetis_kl46_sc/src/drivers/mcg\mcg.c ****   if (!((((MCG_S & MCG_S_CLKST_MASK) >> MCG_S_CLKST_SHIFT) == 0x2) && // check CLKS mux has selcted
 3149              		.loc 1 712 0
 3150 0008 494B     		ldr	r3, .L253
 3151 000a 9B79     		ldrb	r3, [r3, #6]
 3152 000c DBB2     		uxtb	r3, r3
 3153 000e 1A1C     		mov	r2, r3
 3154 0010 0C23     		mov	r3, #12
 3155 0012 1340     		and	r3, r2
 3156 0014 9B08     		lsr	r3, r3, #2
 3157 0016 022B     		cmp	r3, #2
 3158 0018 14D1     		bne	.L241
 713:C:/Users/b01252/Documents/Freescale/L4K/software/kinetis_kl46_sc/src/drivers/mcg\mcg.c ****       (!(MCG_S & MCG_S_IREFST_MASK)) &&                               // check FLL ref is external 
 3159              		.loc 1 713 0
 3160 001a 454B     		ldr	r3, .L253
 3161 001c 9B79     		ldrb	r3, [r3, #6]
 3162 001e DBB2     		uxtb	r3, r3
 3163 0020 1A1C     		mov	r2, r3
 3164 0022 1023     		mov	r3, #16
 3165 0024 1340     		and	r3, r2
 712:C:/Users/b01252/Documents/Freescale/L4K/software/kinetis_kl46_sc/src/drivers/mcg\mcg.c ****   if (!((((MCG_S & MCG_S_CLKST_MASK) >> MCG_S_CLKST_SHIFT) == 0x2) && // check CLKS mux has selcted
 3166              		.loc 1 712 0
 3167 0026 0DD1     		bne	.L241
 714:C:/Users/b01252/Documents/Freescale/L4K/software/kinetis_kl46_sc/src/drivers/mcg\mcg.c ****       (!(MCG_S & MCG_S_PLLST_MASK)) &&                                // check PLLS mux has selecte
 3168              		.loc 1 714 0
 3169 0028 414B     		ldr	r3, .L253
 3170 002a 9B79     		ldrb	r3, [r3, #6]
 3171 002c DBB2     		uxtb	r3, r3
 3172 002e 1A1C     		mov	r2, r3
 3173 0030 2023     		mov	r3, #32
 3174 0032 1340     		and	r3, r2
 713:C:/Users/b01252/Documents/Freescale/L4K/software/kinetis_kl46_sc/src/drivers/mcg\mcg.c ****       (!(MCG_S & MCG_S_IREFST_MASK)) &&                               // check FLL ref is external 
 3175              		.loc 1 713 0
 3176 0034 06D1     		bne	.L241
 715:C:/Users/b01252/Documents/Freescale/L4K/software/kinetis_kl46_sc/src/drivers/mcg\mcg.c ****       (!(MCG_C2 & MCG_C2_LP_MASK))))                                  // check MCG_C2[LP] bit is no
 3177              		.loc 1 715 0
 3178 0036 3E4B     		ldr	r3, .L253
 3179 0038 5B78     		ldrb	r3, [r3, #1]
 3180 003a DBB2     		uxtb	r3, r3
 3181 003c 1A1C     		mov	r2, r3
 3182 003e 0223     		mov	r3, #2
 3183 0040 1340     		and	r3, r2
 712:C:/Users/b01252/Documents/Freescale/L4K/software/kinetis_kl46_sc/src/drivers/mcg\mcg.c ****   if (!((((MCG_S & MCG_S_CLKST_MASK) >> MCG_S_CLKST_SHIFT) == 0x2) && // check CLKS mux has selcted
 3184              		.loc 1 712 0
 3185 0042 01D0     		beq	.L242
 3186              	.L241:
 716:C:/Users/b01252/Documents/Freescale/L4K/software/kinetis_kl46_sc/src/drivers/mcg\mcg.c ****   {
 717:C:/Users/b01252/Documents/Freescale/L4K/software/kinetis_kl46_sc/src/drivers/mcg\mcg.c ****     return 0x4;                                                       // return error code
 3187              		.loc 1 717 0
 3188 0044 0423     		mov	r3, #4
 3189 0046 6EE0     		b	.L243
 3190              	.L242:
 718:C:/Users/b01252/Documents/Freescale/L4K/software/kinetis_kl46_sc/src/drivers/mcg\mcg.c ****   }
 719:C:/Users/b01252/Documents/Freescale/L4K/software/kinetis_kl46_sc/src/drivers/mcg\mcg.c ****   
 720:C:/Users/b01252/Documents/Freescale/L4K/software/kinetis_kl46_sc/src/drivers/mcg\mcg.c ****   // The FLL ref clk divide value depends on FRDIV and the RANGE value
 721:C:/Users/b01252/Documents/Freescale/L4K/software/kinetis_kl46_sc/src/drivers/mcg\mcg.c ****   if (((MCG_C2 & MCG_C2_RANGE0_MASK) >> MCG_C2_RANGE0_SHIFT) > 0)
 3191              		.loc 1 721 0
 3192 0048 394B     		ldr	r3, .L253
 3193 004a 5B78     		ldrb	r3, [r3, #1]
 3194 004c DBB2     		uxtb	r3, r3
 3195 004e 1A1C     		mov	r2, r3
 3196 0050 3023     		mov	r3, #48
 3197 0052 1340     		and	r3, r2
 3198 0054 1B09     		lsr	r3, r3, #4
 3199 0056 14D0     		beq	.L244
 722:C:/Users/b01252/Documents/Freescale/L4K/software/kinetis_kl46_sc/src/drivers/mcg\mcg.c ****   {
 723:C:/Users/b01252/Documents/Freescale/L4K/software/kinetis_kl46_sc/src/drivers/mcg\mcg.c ****     fll_ref_freq = (crystal_val / (32 << ((MCG_C1 & MCG_C1_FRDIV_MASK) >> MCG_C1_FRDIV_SHIFT)));
 3200              		.loc 1 723 0
 3201 0058 354B     		ldr	r3, .L253
 3202 005a 1B78     		ldrb	r3, [r3]
 3203 005c DBB2     		uxtb	r3, r3
 3204 005e 1A1C     		mov	r2, r3
 3205 0060 3823     		mov	r3, #56
 3206 0062 1340     		and	r3, r2
 3207 0064 DB08     		lsr	r3, r3, #3
 3208 0066 2022     		mov	r2, #32
 3209 0068 111C     		mov	r1, r2
 3210 006a 9940     		lsl	r1, r1, r3
 3211 006c 0B1C     		mov	r3, r1
 3212 006e 7868     		ldr	r0, [r7, #4]
 3213 0070 191C     		mov	r1, r3
 3214 0072 FFF7FEFF 		bl	__aeabi_idiv
 3215 0076 031C     		mov	r3, r0
 3216 0078 1A1C     		mov	r2, r3
 3217 007a 3B1C     		mov	r3, r7
 3218 007c 0C33     		add	r3, r3, #12
 3219 007e 1A80     		strh	r2, [r3]
 3220 0080 13E0     		b	.L245
 3221              	.L244:
 724:C:/Users/b01252/Documents/Freescale/L4K/software/kinetis_kl46_sc/src/drivers/mcg\mcg.c ****   }
 725:C:/Users/b01252/Documents/Freescale/L4K/software/kinetis_kl46_sc/src/drivers/mcg\mcg.c ****   else
 726:C:/Users/b01252/Documents/Freescale/L4K/software/kinetis_kl46_sc/src/drivers/mcg\mcg.c ****   {
 727:C:/Users/b01252/Documents/Freescale/L4K/software/kinetis_kl46_sc/src/drivers/mcg\mcg.c ****     fll_ref_freq = ((crystal_val) / (1 << (((MCG_C2 & MCG_C2_RANGE0_MASK) >> MCG_C2_RANGE0_SHIFT)))
 3222              		.loc 1 727 0
 3223 0082 2B4B     		ldr	r3, .L253
 3224 0084 5B78     		ldrb	r3, [r3, #1]
 3225 0086 DBB2     		uxtb	r3, r3
 3226 0088 1A1C     		mov	r2, r3
 3227 008a 3023     		mov	r3, #48
 3228 008c 1340     		and	r3, r2
 3229 008e 1B09     		lsr	r3, r3, #4
 3230 0090 0122     		mov	r2, #1
 3231 0092 111C     		mov	r1, r2
 3232 0094 9940     		lsl	r1, r1, r3
 3233 0096 0B1C     		mov	r3, r1
 3234 0098 7868     		ldr	r0, [r7, #4]
 3235 009a 191C     		mov	r1, r3
 3236 009c FFF7FEFF 		bl	__aeabi_idiv
 3237 00a0 031C     		mov	r3, r0
 3238 00a2 1A1C     		mov	r2, r3
 3239 00a4 3B1C     		mov	r3, r7
 3240 00a6 0C33     		add	r3, r3, #12
 3241 00a8 1A80     		strh	r2, [r3]
 3242              	.L245:
 728:C:/Users/b01252/Documents/Freescale/L4K/software/kinetis_kl46_sc/src/drivers/mcg\mcg.c ****   }
 729:C:/Users/b01252/Documents/Freescale/L4K/software/kinetis_kl46_sc/src/drivers/mcg\mcg.c ****   
 730:C:/Users/b01252/Documents/Freescale/L4K/software/kinetis_kl46_sc/src/drivers/mcg\mcg.c **** // Check resulting FLL frequency 
 731:C:/Users/b01252/Documents/Freescale/L4K/software/kinetis_kl46_sc/src/drivers/mcg\mcg.c ****   mcg_out = fll_freq(fll_ref_freq); // FLL reference frequency calculated from ext ref freq and FRD
 3243              		.loc 1 731 0
 3244 00aa 3B1C     		mov	r3, r7
 3245 00ac 0C33     		add	r3, r3, #12
 3246 00ae 0022     		mov	r2, #0
 3247 00b0 9B5E     		ldrsh	r3, [r3, r2]
 3248 00b2 181C     		mov	r0, r3
 3249 00b4 FFF7FEFF 		bl	fll_freq
 3250 00b8 031C     		mov	r3, r0
 3251 00ba BB60     		str	r3, [r7, #8]
 732:C:/Users/b01252/Documents/Freescale/L4K/software/kinetis_kl46_sc/src/drivers/mcg\mcg.c ****   if (mcg_out < 0x3C) {return mcg_out;} // If error code returned, return the code to calling funct
 3252              		.loc 1 732 0
 3253 00bc BB68     		ldr	r3, [r7, #8]
 3254 00be 3B2B     		cmp	r3, #59
 3255 00c0 01DC     		bgt	.L246
 3256              		.loc 1 732 0 is_stmt 0
 3257 00c2 BB68     		ldr	r3, [r7, #8]
 3258 00c4 2FE0     		b	.L243
 3259              	.L246:
 733:C:/Users/b01252/Documents/Freescale/L4K/software/kinetis_kl46_sc/src/drivers/mcg\mcg.c ****   
 734:C:/Users/b01252/Documents/Freescale/L4K/software/kinetis_kl46_sc/src/drivers/mcg\mcg.c **** // Clear CLKS field to switch CLKS mux to select FLL output
 735:C:/Users/b01252/Documents/Freescale/L4K/software/kinetis_kl46_sc/src/drivers/mcg\mcg.c ****   MCG_C1 &= ~MCG_C1_CLKS_MASK; // clear CLKS to select FLL output
 3260              		.loc 1 735 0 is_stmt 1
 3261 00c6 1A4B     		ldr	r3, .L253
 3262 00c8 194A     		ldr	r2, .L253
 3263 00ca 1278     		ldrb	r2, [r2]
 3264 00cc D1B2     		uxtb	r1, r2
 3265 00ce 3F22     		mov	r2, #63
 3266 00d0 0A40     		and	r2, r1
 3267 00d2 D2B2     		uxtb	r2, r2
 3268 00d4 1A70     		strb	r2, [r3]
 736:C:/Users/b01252/Documents/Freescale/L4K/software/kinetis_kl46_sc/src/drivers/mcg\mcg.c **** 
 737:C:/Users/b01252/Documents/Freescale/L4K/software/kinetis_kl46_sc/src/drivers/mcg\mcg.c **** // Wait for clock status bits to show clock source is FLL
 738:C:/Users/b01252/Documents/Freescale/L4K/software/kinetis_kl46_sc/src/drivers/mcg\mcg.c ****   for (i = 0 ; i < 2000 ; i++)
 3269              		.loc 1 738 0
 3270 00d6 3B1C     		mov	r3, r7
 3271 00d8 0E33     		add	r3, r3, #14
 3272 00da 0022     		mov	r2, #0
 3273 00dc 1A80     		strh	r2, [r3]
 3274 00de 0EE0     		b	.L247
 3275              	.L250:
 739:C:/Users/b01252/Documents/Freescale/L4K/software/kinetis_kl46_sc/src/drivers/mcg\mcg.c ****   {
 740:C:/Users/b01252/Documents/Freescale/L4K/software/kinetis_kl46_sc/src/drivers/mcg\mcg.c ****     if (((MCG_S & MCG_S_CLKST_MASK) >> MCG_S_CLKST_SHIFT) == 0x0) break; // jump out early if CLKST
 3276              		.loc 1 740 0
 3277 00e0 134B     		ldr	r3, .L253
 3278 00e2 9B79     		ldrb	r3, [r3, #6]
 3279 00e4 DBB2     		uxtb	r3, r3
 3280 00e6 1A1C     		mov	r2, r3
 3281 00e8 0C23     		mov	r3, #12
 3282 00ea 1340     		and	r3, r2
 3283 00ec 9B08     		lsr	r3, r3, #2
 3284 00ee 0ED0     		beq	.L252
 3285              	.L248:
 738:C:/Users/b01252/Documents/Freescale/L4K/software/kinetis_kl46_sc/src/drivers/mcg\mcg.c ****   for (i = 0 ; i < 2000 ; i++)
 3286              		.loc 1 738 0
 3287 00f0 3B1C     		mov	r3, r7
 3288 00f2 0E33     		add	r3, r3, #14
 3289 00f4 3A1C     		mov	r2, r7
 3290 00f6 0E32     		add	r2, r2, #14
 3291 00f8 1288     		ldrh	r2, [r2]
 3292 00fa 0132     		add	r2, r2, #1
 3293 00fc 1A80     		strh	r2, [r3]
 3294              	.L247:
 738:C:/Users/b01252/Documents/Freescale/L4K/software/kinetis_kl46_sc/src/drivers/mcg\mcg.c ****   for (i = 0 ; i < 2000 ; i++)
 3295              		.loc 1 738 0 is_stmt 0
 3296 00fe 3B1C     		mov	r3, r7
 3297 0100 0E33     		add	r3, r3, #14
 3298 0102 0021     		mov	r1, #0
 3299 0104 5A5E     		ldrsh	r2, [r3, r1]
 3300 0106 0B4B     		ldr	r3, .L253+4
 3301 0108 9A42     		cmp	r2, r3
 3302 010a E9DD     		ble	.L250
 3303 010c 00E0     		b	.L249
 3304              	.L252:
 3305              		.loc 1 740 0 is_stmt 1
 3306 010e C046     		mov	r8, r8
 3307              	.L249:
 741:C:/Users/b01252/Documents/Freescale/L4K/software/kinetis_kl46_sc/src/drivers/mcg\mcg.c ****   }
 742:C:/Users/b01252/Documents/Freescale/L4K/software/kinetis_kl46_sc/src/drivers/mcg\mcg.c ****   if (((MCG_S & MCG_S_CLKST_MASK) >> MCG_S_CLKST_SHIFT) != 0x0) return 0x18; // check FLL is really
 3308              		.loc 1 742 0
 3309 0110 074B     		ldr	r3, .L253
 3310 0112 9B79     		ldrb	r3, [r3, #6]
 3311 0114 DBB2     		uxtb	r3, r3
 3312 0116 1A1C     		mov	r2, r3
 3313 0118 0C23     		mov	r3, #12
 3314 011a 1340     		and	r3, r2
 3315 011c 9B08     		lsr	r3, r3, #2
 3316 011e 01D0     		beq	.L251
 3317              		.loc 1 742 0 is_stmt 0
 3318 0120 1823     		mov	r3, #24
 3319 0122 00E0     		b	.L243
 3320              	.L251:
 743:C:/Users/b01252/Documents/Freescale/L4K/software/kinetis_kl46_sc/src/drivers/mcg\mcg.c ****   
 744:C:/Users/b01252/Documents/Freescale/L4K/software/kinetis_kl46_sc/src/drivers/mcg\mcg.c **** // Now in FEE mode
 745:C:/Users/b01252/Documents/Freescale/L4K/software/kinetis_kl46_sc/src/drivers/mcg\mcg.c ****   return mcg_out;
 3321              		.loc 1 745 0 is_stmt 1
 3322 0124 BB68     		ldr	r3, [r7, #8]
 3323              	.L243:
 746:C:/Users/b01252/Documents/Freescale/L4K/software/kinetis_kl46_sc/src/drivers/mcg\mcg.c **** } // fbe_fee
 3324              		.loc 1 746 0
 3325 0126 181C     		mov	r0, r3
 3326 0128 BD46     		mov	sp, r7
 3327 012a 04B0     		add	sp, sp, #16
 3328              		@ sp needed for prologue
 3329 012c 80BD     		pop	{r7, pc}
 3330              	.L254:
 3331 012e C046     		.align	2
 3332              	.L253:
 3333 0130 00400640 		.word	1074151424
 3334 0134 CF070000 		.word	1999
 3335              		.cfi_endproc
 3336              	.LFE11:
 3338              		.section	.text.fee_fbe,"ax",%progbits
 3339              		.align	2
 3340              		.global	fee_fbe
 3341              		.code	16
 3342              		.thumb_func
 3344              	fee_fbe:
 3345              	.LFB12:
 747:C:/Users/b01252/Documents/Freescale/L4K/software/kinetis_kl46_sc/src/drivers/mcg\mcg.c **** 
 748:C:/Users/b01252/Documents/Freescale/L4K/software/kinetis_kl46_sc/src/drivers/mcg\mcg.c **** 
 749:C:/Users/b01252/Documents/Freescale/L4K/software/kinetis_kl46_sc/src/drivers/mcg\mcg.c **** int fee_fbe(int crystal_val)
 750:C:/Users/b01252/Documents/Freescale/L4K/software/kinetis_kl46_sc/src/drivers/mcg\mcg.c **** { 
 3346              		.loc 1 750 0
 3347              		.cfi_startproc
 3348 0000 80B5     		push	{r7, lr}
 3349              	.LCFI36:
 3350              		.cfi_def_cfa_offset 8
 3351              		.cfi_offset 7, -8
 3352              		.cfi_offset 14, -4
 3353 0002 84B0     		sub	sp, sp, #16
 3354              	.LCFI37:
 3355              		.cfi_def_cfa_offset 24
 3356 0004 00AF     		add	r7, sp, #0
 3357              	.LCFI38:
 3358              		.cfi_def_cfa_register 7
 3359 0006 7860     		str	r0, [r7, #4]
 751:C:/Users/b01252/Documents/Freescale/L4K/software/kinetis_kl46_sc/src/drivers/mcg\mcg.c ****   short i;
 752:C:/Users/b01252/Documents/Freescale/L4K/software/kinetis_kl46_sc/src/drivers/mcg\mcg.c ****   
 753:C:/Users/b01252/Documents/Freescale/L4K/software/kinetis_kl46_sc/src/drivers/mcg\mcg.c **** // Check MCG is in FEE mode
 754:C:/Users/b01252/Documents/Freescale/L4K/software/kinetis_kl46_sc/src/drivers/mcg\mcg.c ****   if (!((((MCG_S & MCG_S_CLKST_MASK) >> MCG_S_CLKST_SHIFT) == 0x0) && // check CLKS mux has selcted
 3360              		.loc 1 754 0
 3361 0008 274B     		ldr	r3, .L265
 3362 000a 9B79     		ldrb	r3, [r3, #6]
 3363 000c DBB2     		uxtb	r3, r3
 3364 000e 1A1C     		mov	r2, r3
 3365 0010 0C23     		mov	r3, #12
 3366 0012 1340     		and	r3, r2
 3367 0014 9B08     		lsr	r3, r3, #2
 3368 0016 0DD1     		bne	.L256
 755:C:/Users/b01252/Documents/Freescale/L4K/software/kinetis_kl46_sc/src/drivers/mcg\mcg.c ****       (!(MCG_S & MCG_S_IREFST_MASK)) &&                               // check FLL ref is external 
 3369              		.loc 1 755 0
 3370 0018 234B     		ldr	r3, .L265
 3371 001a 9B79     		ldrb	r3, [r3, #6]
 3372 001c DBB2     		uxtb	r3, r3
 3373 001e 1A1C     		mov	r2, r3
 3374 0020 1023     		mov	r3, #16
 3375 0022 1340     		and	r3, r2
 754:C:/Users/b01252/Documents/Freescale/L4K/software/kinetis_kl46_sc/src/drivers/mcg\mcg.c ****   if (!((((MCG_S & MCG_S_CLKST_MASK) >> MCG_S_CLKST_SHIFT) == 0x0) && // check CLKS mux has selcted
 3376              		.loc 1 754 0
 3377 0024 06D1     		bne	.L256
 756:C:/Users/b01252/Documents/Freescale/L4K/software/kinetis_kl46_sc/src/drivers/mcg\mcg.c ****       (!(MCG_S & MCG_S_PLLST_MASK))))                                 // check PLLS mux has selecte
 3378              		.loc 1 756 0
 3379 0026 204B     		ldr	r3, .L265
 3380 0028 9B79     		ldrb	r3, [r3, #6]
 3381 002a DBB2     		uxtb	r3, r3
 3382 002c 1A1C     		mov	r2, r3
 3383 002e 2023     		mov	r3, #32
 3384 0030 1340     		and	r3, r2
 754:C:/Users/b01252/Documents/Freescale/L4K/software/kinetis_kl46_sc/src/drivers/mcg\mcg.c ****   if (!((((MCG_S & MCG_S_CLKST_MASK) >> MCG_S_CLKST_SHIFT) == 0x0) && // check CLKS mux has selcted
 3385              		.loc 1 754 0
 3386 0032 01D0     		beq	.L257
 3387              	.L256:
 757:C:/Users/b01252/Documents/Freescale/L4K/software/kinetis_kl46_sc/src/drivers/mcg\mcg.c ****   {
 758:C:/Users/b01252/Documents/Freescale/L4K/software/kinetis_kl46_sc/src/drivers/mcg\mcg.c ****     return 0x2;                                                       // return error code
 3388              		.loc 1 758 0
 3389 0034 0223     		mov	r3, #2
 3390 0036 32E0     		b	.L258
 3391              	.L257:
 759:C:/Users/b01252/Documents/Freescale/L4K/software/kinetis_kl46_sc/src/drivers/mcg\mcg.c ****   }
 760:C:/Users/b01252/Documents/Freescale/L4K/software/kinetis_kl46_sc/src/drivers/mcg\mcg.c ****   
 761:C:/Users/b01252/Documents/Freescale/L4K/software/kinetis_kl46_sc/src/drivers/mcg\mcg.c **** // Set CLKS field to 2 to switch CLKS mux to select ext ref clock
 762:C:/Users/b01252/Documents/Freescale/L4K/software/kinetis_kl46_sc/src/drivers/mcg\mcg.c **** // MCG is current in FEE mode so CLKS field = 0 so can just OR in new value
 763:C:/Users/b01252/Documents/Freescale/L4K/software/kinetis_kl46_sc/src/drivers/mcg\mcg.c ****   MCG_C1 |= MCG_C1_CLKS(2); // set CLKS to select ext ref clock
 3392              		.loc 1 763 0
 3393 0038 1B4B     		ldr	r3, .L265
 3394 003a 1B4A     		ldr	r2, .L265
 3395 003c 1278     		ldrb	r2, [r2]
 3396 003e D2B2     		uxtb	r2, r2
 3397 0040 8021     		mov	r1, #128
 3398 0042 4942     		neg	r1, r1
 3399 0044 0A43     		orr	r2, r1
 3400 0046 D2B2     		uxtb	r2, r2
 3401 0048 1A70     		strb	r2, [r3]
 764:C:/Users/b01252/Documents/Freescale/L4K/software/kinetis_kl46_sc/src/drivers/mcg\mcg.c **** 
 765:C:/Users/b01252/Documents/Freescale/L4K/software/kinetis_kl46_sc/src/drivers/mcg\mcg.c **** /// Wait for clock status bits to show clock source is ext ref clk
 766:C:/Users/b01252/Documents/Freescale/L4K/software/kinetis_kl46_sc/src/drivers/mcg\mcg.c ****   for (i = 0 ; i < 2000 ; i++)
 3402              		.loc 1 766 0
 3403 004a 3B1C     		mov	r3, r7
 3404 004c 0E33     		add	r3, r3, #14
 3405 004e 0022     		mov	r2, #0
 3406 0050 1A80     		strh	r2, [r3]
 3407 0052 0FE0     		b	.L259
 3408              	.L262:
 767:C:/Users/b01252/Documents/Freescale/L4K/software/kinetis_kl46_sc/src/drivers/mcg\mcg.c ****   {
 768:C:/Users/b01252/Documents/Freescale/L4K/software/kinetis_kl46_sc/src/drivers/mcg\mcg.c ****     if (((MCG_S & MCG_S_CLKST_MASK) >> MCG_S_CLKST_SHIFT) == 0x2) break; // jump out early if CLKST
 3409              		.loc 1 768 0
 3410 0054 144B     		ldr	r3, .L265
 3411 0056 9B79     		ldrb	r3, [r3, #6]
 3412 0058 DBB2     		uxtb	r3, r3
 3413 005a 1A1C     		mov	r2, r3
 3414 005c 0C23     		mov	r3, #12
 3415 005e 1340     		and	r3, r2
 3416 0060 9B08     		lsr	r3, r3, #2
 3417 0062 022B     		cmp	r3, #2
 3418 0064 0ED0     		beq	.L264
 3419              	.L260:
 766:C:/Users/b01252/Documents/Freescale/L4K/software/kinetis_kl46_sc/src/drivers/mcg\mcg.c ****   for (i = 0 ; i < 2000 ; i++)
 3420              		.loc 1 766 0
 3421 0066 3B1C     		mov	r3, r7
 3422 0068 0E33     		add	r3, r3, #14
 3423 006a 3A1C     		mov	r2, r7
 3424 006c 0E32     		add	r2, r2, #14
 3425 006e 1288     		ldrh	r2, [r2]
 3426 0070 0132     		add	r2, r2, #1
 3427 0072 1A80     		strh	r2, [r3]
 3428              	.L259:
 766:C:/Users/b01252/Documents/Freescale/L4K/software/kinetis_kl46_sc/src/drivers/mcg\mcg.c ****   for (i = 0 ; i < 2000 ; i++)
 3429              		.loc 1 766 0 is_stmt 0
 3430 0074 3B1C     		mov	r3, r7
 3431 0076 0E33     		add	r3, r3, #14
 3432 0078 0021     		mov	r1, #0
 3433 007a 5A5E     		ldrsh	r2, [r3, r1]
 3434 007c 0B4B     		ldr	r3, .L265+4
 3435 007e 9A42     		cmp	r2, r3
 3436 0080 E8DD     		ble	.L262
 3437 0082 00E0     		b	.L261
 3438              	.L264:
 3439              		.loc 1 768 0 is_stmt 1
 3440 0084 C046     		mov	r8, r8
 3441              	.L261:
 769:C:/Users/b01252/Documents/Freescale/L4K/software/kinetis_kl46_sc/src/drivers/mcg\mcg.c ****   }
 770:C:/Users/b01252/Documents/Freescale/L4K/software/kinetis_kl46_sc/src/drivers/mcg\mcg.c ****   if (((MCG_S & MCG_S_CLKST_MASK) >> MCG_S_CLKST_SHIFT) != 0x2) return 0x1A; // check EXT CLK is re
 3442              		.loc 1 770 0
 3443 0086 084B     		ldr	r3, .L265
 3444 0088 9B79     		ldrb	r3, [r3, #6]
 3445 008a DBB2     		uxtb	r3, r3
 3446 008c 1A1C     		mov	r2, r3
 3447 008e 0C23     		mov	r3, #12
 3448 0090 1340     		and	r3, r2
 3449 0092 9B08     		lsr	r3, r3, #2
 3450 0094 022B     		cmp	r3, #2
 3451 0096 01D0     		beq	.L263
 3452              		.loc 1 770 0 is_stmt 0
 3453 0098 1A23     		mov	r3, #26
 3454 009a 00E0     		b	.L258
 3455              	.L263:
 771:C:/Users/b01252/Documents/Freescale/L4K/software/kinetis_kl46_sc/src/drivers/mcg\mcg.c ****   
 772:C:/Users/b01252/Documents/Freescale/L4K/software/kinetis_kl46_sc/src/drivers/mcg\mcg.c **** // Now in FBE mode
 773:C:/Users/b01252/Documents/Freescale/L4K/software/kinetis_kl46_sc/src/drivers/mcg\mcg.c ****   return crystal_val;
 3456              		.loc 1 773 0 is_stmt 1
 3457 009c 7B68     		ldr	r3, [r7, #4]
 3458              	.L258:
 774:C:/Users/b01252/Documents/Freescale/L4K/software/kinetis_kl46_sc/src/drivers/mcg\mcg.c **** } // fee_fbe
 3459              		.loc 1 774 0
 3460 009e 181C     		mov	r0, r3
 3461 00a0 BD46     		mov	sp, r7
 3462 00a2 04B0     		add	sp, sp, #16
 3463              		@ sp needed for prologue
 3464 00a4 80BD     		pop	{r7, pc}
 3465              	.L266:
 3466 00a6 C046     		.align	2
 3467              	.L265:
 3468 00a8 00400640 		.word	1074151424
 3469 00ac CF070000 		.word	1999
 3470              		.cfi_endproc
 3471              	.LFE12:
 3473              		.section	.text.fbe_fbi,"ax",%progbits
 3474              		.align	2
 3475              		.global	fbe_fbi
 3476              		.code	16
 3477              		.thumb_func
 3479              	fbe_fbi:
 3480              	.LFB13:
 775:C:/Users/b01252/Documents/Freescale/L4K/software/kinetis_kl46_sc/src/drivers/mcg\mcg.c **** 
 776:C:/Users/b01252/Documents/Freescale/L4K/software/kinetis_kl46_sc/src/drivers/mcg\mcg.c **** 
 777:C:/Users/b01252/Documents/Freescale/L4K/software/kinetis_kl46_sc/src/drivers/mcg\mcg.c **** int fbe_fbi(int irc_freq, unsigned char irc_select)
 778:C:/Users/b01252/Documents/Freescale/L4K/software/kinetis_kl46_sc/src/drivers/mcg\mcg.c **** {
 3481              		.loc 1 778 0
 3482              		.cfi_startproc
 3483 0000 80B5     		push	{r7, lr}
 3484              	.LCFI39:
 3485              		.cfi_def_cfa_offset 8
 3486              		.cfi_offset 7, -8
 3487              		.cfi_offset 14, -4
 3488 0002 84B0     		sub	sp, sp, #16
 3489              	.LCFI40:
 3490              		.cfi_def_cfa_offset 24
 3491 0004 00AF     		add	r7, sp, #0
 3492              	.LCFI41:
 3493              		.cfi_def_cfa_register 7
 3494 0006 7860     		str	r0, [r7, #4]
 3495 0008 0A1C     		mov	r2, r1
 3496 000a FB1C     		add	r3, r7, #3
 3497 000c 1A70     		strb	r2, [r3]
 779:C:/Users/b01252/Documents/Freescale/L4K/software/kinetis_kl46_sc/src/drivers/mcg\mcg.c ****   unsigned char temp_reg;
 780:C:/Users/b01252/Documents/Freescale/L4K/software/kinetis_kl46_sc/src/drivers/mcg\mcg.c ****   unsigned char fcrdiv_val;
 781:C:/Users/b01252/Documents/Freescale/L4K/software/kinetis_kl46_sc/src/drivers/mcg\mcg.c ****   short i;
 782:C:/Users/b01252/Documents/Freescale/L4K/software/kinetis_kl46_sc/src/drivers/mcg\mcg.c ****   
 783:C:/Users/b01252/Documents/Freescale/L4K/software/kinetis_kl46_sc/src/drivers/mcg\mcg.c **** // Check MCG is in FBE mode
 784:C:/Users/b01252/Documents/Freescale/L4K/software/kinetis_kl46_sc/src/drivers/mcg\mcg.c ****   if (!((((MCG_S & MCG_S_CLKST_MASK) >> MCG_S_CLKST_SHIFT) == 0x2) && // check CLKS mux has selcted
 3498              		.loc 1 784 0
 3499 000e 944B     		ldr	r3, .L302
 3500 0010 9B79     		ldrb	r3, [r3, #6]
 3501 0012 DBB2     		uxtb	r3, r3
 3502 0014 1A1C     		mov	r2, r3
 3503 0016 0C23     		mov	r3, #12
 3504 0018 1340     		and	r3, r2
 3505 001a 9B08     		lsr	r3, r3, #2
 3506 001c 022B     		cmp	r3, #2
 3507 001e 14D1     		bne	.L268
 785:C:/Users/b01252/Documents/Freescale/L4K/software/kinetis_kl46_sc/src/drivers/mcg\mcg.c ****       (!(MCG_S & MCG_S_IREFST_MASK)) &&                               // check FLL ref is external 
 3508              		.loc 1 785 0
 3509 0020 8F4B     		ldr	r3, .L302
 3510 0022 9B79     		ldrb	r3, [r3, #6]
 3511 0024 DBB2     		uxtb	r3, r3
 3512 0026 1A1C     		mov	r2, r3
 3513 0028 1023     		mov	r3, #16
 3514 002a 1340     		and	r3, r2
 784:C:/Users/b01252/Documents/Freescale/L4K/software/kinetis_kl46_sc/src/drivers/mcg\mcg.c ****   if (!((((MCG_S & MCG_S_CLKST_MASK) >> MCG_S_CLKST_SHIFT) == 0x2) && // check CLKS mux has selcted
 3515              		.loc 1 784 0
 3516 002c 0DD1     		bne	.L268
 786:C:/Users/b01252/Documents/Freescale/L4K/software/kinetis_kl46_sc/src/drivers/mcg\mcg.c ****       (!(MCG_S & MCG_S_PLLST_MASK)) &&                                // check PLLS mux has selecte
 3517              		.loc 1 786 0
 3518 002e 8C4B     		ldr	r3, .L302
 3519 0030 9B79     		ldrb	r3, [r3, #6]
 3520 0032 DBB2     		uxtb	r3, r3
 3521 0034 1A1C     		mov	r2, r3
 3522 0036 2023     		mov	r3, #32
 3523 0038 1340     		and	r3, r2
 785:C:/Users/b01252/Documents/Freescale/L4K/software/kinetis_kl46_sc/src/drivers/mcg\mcg.c ****       (!(MCG_S & MCG_S_IREFST_MASK)) &&                               // check FLL ref is external 
 3524              		.loc 1 785 0
 3525 003a 06D1     		bne	.L268
 787:C:/Users/b01252/Documents/Freescale/L4K/software/kinetis_kl46_sc/src/drivers/mcg\mcg.c ****       (!(MCG_C2 & MCG_C2_LP_MASK))))                                  // check MCG_C2[LP] bit is no
 3526              		.loc 1 787 0
 3527 003c 884B     		ldr	r3, .L302
 3528 003e 5B78     		ldrb	r3, [r3, #1]
 3529 0040 DBB2     		uxtb	r3, r3
 3530 0042 1A1C     		mov	r2, r3
 3531 0044 0223     		mov	r3, #2
 3532 0046 1340     		and	r3, r2
 784:C:/Users/b01252/Documents/Freescale/L4K/software/kinetis_kl46_sc/src/drivers/mcg\mcg.c ****   if (!((((MCG_S & MCG_S_CLKST_MASK) >> MCG_S_CLKST_SHIFT) == 0x2) && // check CLKS mux has selcted
 3533              		.loc 1 784 0
 3534 0048 01D0     		beq	.L269
 3535              	.L268:
 788:C:/Users/b01252/Documents/Freescale/L4K/software/kinetis_kl46_sc/src/drivers/mcg\mcg.c ****   {
 789:C:/Users/b01252/Documents/Freescale/L4K/software/kinetis_kl46_sc/src/drivers/mcg\mcg.c ****     return 0x4;                                                       // return error code
 3536              		.loc 1 789 0
 3537 004a 0423     		mov	r3, #4
 3538 004c 04E1     		b	.L270
 3539              	.L269:
 790:C:/Users/b01252/Documents/Freescale/L4K/software/kinetis_kl46_sc/src/drivers/mcg\mcg.c ****   }
 791:C:/Users/b01252/Documents/Freescale/L4K/software/kinetis_kl46_sc/src/drivers/mcg\mcg.c **** 
 792:C:/Users/b01252/Documents/Freescale/L4K/software/kinetis_kl46_sc/src/drivers/mcg\mcg.c **** // Check that the irc frequency matches the selected IRC 
 793:C:/Users/b01252/Documents/Freescale/L4K/software/kinetis_kl46_sc/src/drivers/mcg\mcg.c ****   if (!(irc_select))
 3540              		.loc 1 793 0
 3541 004e FB1C     		add	r3, r7, #3
 3542 0050 1B78     		ldrb	r3, [r3]
 3543 0052 002B     		cmp	r3, #0
 3544 0054 09D1     		bne	.L271
 794:C:/Users/b01252/Documents/Freescale/L4K/software/kinetis_kl46_sc/src/drivers/mcg\mcg.c ****   {    
 795:C:/Users/b01252/Documents/Freescale/L4K/software/kinetis_kl46_sc/src/drivers/mcg\mcg.c ****     if ((irc_freq < 31250) || (irc_freq > 39063)) {return 0x31;}
 3545              		.loc 1 795 0
 3546 0056 7A68     		ldr	r2, [r7, #4]
 3547 0058 824B     		ldr	r3, .L302+4
 3548 005a 9A42     		cmp	r2, r3
 3549 005c 03DD     		ble	.L272
 3550              		.loc 1 795 0 is_stmt 0
 3551 005e 7A68     		ldr	r2, [r7, #4]
 3552 0060 814B     		ldr	r3, .L302+8
 3553 0062 9A42     		cmp	r2, r3
 3554 0064 0BDD     		ble	.L273
 3555              	.L272:
 3556              		.loc 1 795 0
 3557 0066 3123     		mov	r3, #49
 3558 0068 F6E0     		b	.L270
 3559              	.L271:
 796:C:/Users/b01252/Documents/Freescale/L4K/software/kinetis_kl46_sc/src/drivers/mcg\mcg.c ****   }
 797:C:/Users/b01252/Documents/Freescale/L4K/software/kinetis_kl46_sc/src/drivers/mcg\mcg.c ****   else
 798:C:/Users/b01252/Documents/Freescale/L4K/software/kinetis_kl46_sc/src/drivers/mcg\mcg.c ****   {
 799:C:/Users/b01252/Documents/Freescale/L4K/software/kinetis_kl46_sc/src/drivers/mcg\mcg.c ****     if ((irc_freq < 3000000) || (irc_freq > 5000000)) {return 0x32;} // Fast IRC freq
 3560              		.loc 1 799 0 is_stmt 1
 3561 006a 7A68     		ldr	r2, [r7, #4]
 3562 006c 7F4B     		ldr	r3, .L302+12
 3563 006e 9A42     		cmp	r2, r3
 3564 0070 03DD     		ble	.L274
 3565              		.loc 1 799 0 is_stmt 0
 3566 0072 7A68     		ldr	r2, [r7, #4]
 3567 0074 7E4B     		ldr	r3, .L302+16
 3568 0076 9A42     		cmp	r2, r3
 3569 0078 01DD     		ble	.L273
 3570              	.L274:
 3571              		.loc 1 799 0
 3572 007a 3223     		mov	r3, #50
 3573 007c ECE0     		b	.L270
 3574              	.L273:
 800:C:/Users/b01252/Documents/Freescale/L4K/software/kinetis_kl46_sc/src/drivers/mcg\mcg.c ****   }
 801:C:/Users/b01252/Documents/Freescale/L4K/software/kinetis_kl46_sc/src/drivers/mcg\mcg.c ****   
 802:C:/Users/b01252/Documents/Freescale/L4K/software/kinetis_kl46_sc/src/drivers/mcg\mcg.c **** // Select the required IRC
 803:C:/Users/b01252/Documents/Freescale/L4K/software/kinetis_kl46_sc/src/drivers/mcg\mcg.c ****   if (irc_select)
 3575              		.loc 1 803 0 is_stmt 1
 3576 007e FB1C     		add	r3, r7, #3
 3577 0080 1B78     		ldrb	r3, [r3]
 3578 0082 002B     		cmp	r3, #0
 3579 0084 08D0     		beq	.L275
