   1              		.cpu cortex-m0
   2              		.fpu softvfp
   3              		.eabi_attribute 20, 1
   4              		.eabi_attribute 21, 1
   5              		.eabi_attribute 23, 3
   6              		.eabi_attribute 24, 1
   7              		.eabi_attribute 25, 1
   8              		.eabi_attribute 26, 1
   9              		.eabi_attribute 30, 6
  10              		.eabi_attribute 34, 0
  11              		.eabi_attribute 18, 4
  12              		.code	16
  13              		.file	"pmc.c"
  14              		.text
  15              	.Ltext0:
  16              		.cfi_sections	.debug_frame
  17              		.comm	i,4,4
  18              		.section	.text.LVD_Initalize,"ax",%progbits
  19              		.align	2
  20              		.global	LVD_Initalize
  21              		.code	16
  22              		.thumb_func
  24              	LVD_Initalize:
  25              	.LFB0:
  26              		.file 1 "C:/Users/b01252/Documents/Freescale/L4K/software/kinetis_kl46_sc/src/drivers/pmc/pmc.c"
   1:C:/Users/b01252/Documents/Freescale/L4K/software/kinetis_kl46_sc/src/drivers/pmc\pmc.c **** /*
   2:C:/Users/b01252/Documents/Freescale/L4K/software/kinetis_kl46_sc/src/drivers/pmc\pmc.c ****  * File:        pmc.c
   3:C:/Users/b01252/Documents/Freescale/L4K/software/kinetis_kl46_sc/src/drivers/pmc\pmc.c ****  * Purpose:     Provides routines for entering low power modes.
   4:C:/Users/b01252/Documents/Freescale/L4K/software/kinetis_kl46_sc/src/drivers/pmc\pmc.c ****  *
   5:C:/Users/b01252/Documents/Freescale/L4K/software/kinetis_kl46_sc/src/drivers/pmc\pmc.c ****  * Notes:	Since the wakeup mechanism for low power modes
   6:C:/Users/b01252/Documents/Freescale/L4K/software/kinetis_kl46_sc/src/drivers/pmc\pmc.c ****  *              will be application specific, these routines
   7:C:/Users/b01252/Documents/Freescale/L4K/software/kinetis_kl46_sc/src/drivers/pmc\pmc.c ****  *              do not include code to setup interrupts to exit
   8:C:/Users/b01252/Documents/Freescale/L4K/software/kinetis_kl46_sc/src/drivers/pmc\pmc.c ****  *              from the low power modes. The desired means of
   9:C:/Users/b01252/Documents/Freescale/L4K/software/kinetis_kl46_sc/src/drivers/pmc\pmc.c ****  *              low power mode exit should be configured before
  10:C:/Users/b01252/Documents/Freescale/L4K/software/kinetis_kl46_sc/src/drivers/pmc\pmc.c ****  *              calling any of these functions.
  11:C:/Users/b01252/Documents/Freescale/L4K/software/kinetis_kl46_sc/src/drivers/pmc\pmc.c ****  *
  12:C:/Users/b01252/Documents/Freescale/L4K/software/kinetis_kl46_sc/src/drivers/pmc\pmc.c ****  *              These routines do not include protection to
  13:C:/Users/b01252/Documents/Freescale/L4K/software/kinetis_kl46_sc/src/drivers/pmc\pmc.c ****  *              prevent illegal state transitions in the mode
  14:C:/Users/b01252/Documents/Freescale/L4K/software/kinetis_kl46_sc/src/drivers/pmc\pmc.c ****  *              controller, and all routines that write to the
  15:C:/Users/b01252/Documents/Freescale/L4K/software/kinetis_kl46_sc/src/drivers/pmc\pmc.c ****  *              PMPROT register write a value to allow all
  16:C:/Users/b01252/Documents/Freescale/L4K/software/kinetis_kl46_sc/src/drivers/pmc\pmc.c ****  *              possible low power modes (it is write once, so
  17:C:/Users/b01252/Documents/Freescale/L4K/software/kinetis_kl46_sc/src/drivers/pmc\pmc.c ****  *              if only the currently requested mode is enabled
  18:C:/Users/b01252/Documents/Freescale/L4K/software/kinetis_kl46_sc/src/drivers/pmc\pmc.c ****  *              a different mode couldn't be enabled later on).
  19:C:/Users/b01252/Documents/Freescale/L4K/software/kinetis_kl46_sc/src/drivers/pmc\pmc.c ****  *              
  20:C:/Users/b01252/Documents/Freescale/L4K/software/kinetis_kl46_sc/src/drivers/pmc\pmc.c ****  */
  21:C:/Users/b01252/Documents/Freescale/L4K/software/kinetis_kl46_sc/src/drivers/pmc\pmc.c **** 
  22:C:/Users/b01252/Documents/Freescale/L4K/software/kinetis_kl46_sc/src/drivers/pmc\pmc.c **** #include "common.h"
  23:C:/Users/b01252/Documents/Freescale/L4K/software/kinetis_kl46_sc/src/drivers/pmc\pmc.c **** #include "pmc.h"
  24:C:/Users/b01252/Documents/Freescale/L4K/software/kinetis_kl46_sc/src/drivers/pmc\pmc.c **** #include "mcg.h"
  25:C:/Users/b01252/Documents/Freescale/L4K/software/kinetis_kl46_sc/src/drivers/pmc\pmc.c **** #include "uart.h"
  26:C:/Users/b01252/Documents/Freescale/L4K/software/kinetis_kl46_sc/src/drivers/pmc\pmc.c **** int i;
  27:C:/Users/b01252/Documents/Freescale/L4K/software/kinetis_kl46_sc/src/drivers/pmc\pmc.c **** void LVD_Initalize(unsigned char lvd_select, 
  28:C:/Users/b01252/Documents/Freescale/L4K/software/kinetis_kl46_sc/src/drivers/pmc\pmc.c ****                    unsigned char lvd_reset_enable,
  29:C:/Users/b01252/Documents/Freescale/L4K/software/kinetis_kl46_sc/src/drivers/pmc\pmc.c ****                    unsigned char lvd_int_enable, 
  30:C:/Users/b01252/Documents/Freescale/L4K/software/kinetis_kl46_sc/src/drivers/pmc\pmc.c ****                    unsigned char lvw_select,
  31:C:/Users/b01252/Documents/Freescale/L4K/software/kinetis_kl46_sc/src/drivers/pmc\pmc.c ****                    unsigned char lvw_int_enable){
  27              		.loc 1 31 0
  28              		.cfi_startproc
  29 0000 90B5     		push	{r4, r7, lr}
  30              	.LCFI0:
  31              		.cfi_def_cfa_offset 12
  32              		.cfi_offset 4, -12
  33              		.cfi_offset 7, -8
  34              		.cfi_offset 14, -4
  35 0002 83B0     		sub	sp, sp, #12
  36              	.LCFI1:
  37              		.cfi_def_cfa_offset 24
  38 0004 00AF     		add	r7, sp, #0
  39              	.LCFI2:
  40              		.cfi_def_cfa_register 7
  41 0006 041C     		mov	r4, r0
  42 0008 081C     		mov	r0, r1
  43 000a 111C     		mov	r1, r2
  44 000c 1A1C     		mov	r2, r3
  45 000e FB1D     		add	r3, r7, #7
  46 0010 1C70     		strb	r4, [r3]
  47 0012 BB1D     		add	r3, r7, #6
  48 0014 1870     		strb	r0, [r3]
  49 0016 7B1D     		add	r3, r7, #5
  50 0018 1970     		strb	r1, [r3]
  51 001a 3B1D     		add	r3, r7, #4
  52 001c 1A70     		strb	r2, [r3]
  32:C:/Users/b01252/Documents/Freescale/L4K/software/kinetis_kl46_sc/src/drivers/pmc\pmc.c ****     PMC_LVDSC1 =  PMC_LVDSC1_LVDACK_MASK | 
  53              		.loc 1 32 0
  54 001e 124B     		ldr	r3, .L2
  55 0020 B91D     		add	r1, r7, #6
  56 0022 7A1D     		add	r2, r7, #5
  57 0024 0978     		ldrb	r1, [r1]
  58 0026 1278     		ldrb	r2, [r2]
  59 0028 0A43     		orr	r2, r1
  60 002a D1B2     		uxtb	r1, r2
  61 002c FA1D     		add	r2, r7, #7
  62 002e 1078     		ldrb	r0, [r2]
  63 0030 0322     		mov	r2, #3
  64 0032 0240     		and	r2, r0
  65 0034 D2B2     		uxtb	r2, r2
  66 0036 0A43     		orr	r2, r1
  67 0038 D2B2     		uxtb	r2, r2
  68 003a 4021     		mov	r1, #64
  69 003c 0A43     		orr	r2, r1
  70 003e D2B2     		uxtb	r2, r2
  71 0040 1A70     		strb	r2, [r3]
  33:C:/Users/b01252/Documents/Freescale/L4K/software/kinetis_kl46_sc/src/drivers/pmc\pmc.c ****                  (lvd_reset_enable) |   //enable LVD Reset ?
  34:C:/Users/b01252/Documents/Freescale/L4K/software/kinetis_kl46_sc/src/drivers/pmc\pmc.c **** 	          lvd_int_enable |      //LVD Interrupt ?
  35:C:/Users/b01252/Documents/Freescale/L4K/software/kinetis_kl46_sc/src/drivers/pmc\pmc.c **** 	          PMC_LVDSC1_LVDV(lvd_select)   ;        //select high or low LVD
  36:C:/Users/b01252/Documents/Freescale/L4K/software/kinetis_kl46_sc/src/drivers/pmc\pmc.c ****     PMC_LVDSC2  = PMC_LVDSC2_LVWACK_MASK | 
  72              		.loc 1 36 0
  73 0042 094B     		ldr	r3, .L2
  74 0044 3A1D     		add	r2, r7, #4
  75 0046 1178     		ldrb	r1, [r2]
  76 0048 0322     		mov	r2, #3
  77 004a 0A40     		and	r2, r1
  78 004c D1B2     		uxtb	r1, r2
  79 004e 3A1C     		mov	r2, r7
  80 0050 1832     		add	r2, r2, #24
  81 0052 1278     		ldrb	r2, [r2]
  82 0054 0A43     		orr	r2, r1
  83 0056 D2B2     		uxtb	r2, r2
  84 0058 4021     		mov	r1, #64
  85 005a 0A43     		orr	r2, r1
  86 005c D2B2     		uxtb	r2, r2
  87 005e 5A70     		strb	r2, [r3, #1]
  37:C:/Users/b01252/Documents/Freescale/L4K/software/kinetis_kl46_sc/src/drivers/pmc\pmc.c ****                  (lvw_int_enable) |    //LVW interrupt?
  38:C:/Users/b01252/Documents/Freescale/L4K/software/kinetis_kl46_sc/src/drivers/pmc\pmc.c ****                   PMC_LVDSC2_LVWV(lvw_select);  // select LVW level 1,2,3 or 4
  39:C:/Users/b01252/Documents/Freescale/L4K/software/kinetis_kl46_sc/src/drivers/pmc\pmc.c **** }
  88              		.loc 1 39 0
  89 0060 BD46     		mov	sp, r7
  90 0062 03B0     		add	sp, sp, #12
  91              		@ sp needed for prologue
  92 0064 90BD     		pop	{r4, r7, pc}
  93              	.L3:
  94 0066 C046     		.align	2
  95              	.L2:
  96 0068 00D00740 		.word	1074253824
  97              		.cfi_endproc
  98              	.LFE0:
 100              		.section	.text.LVD_Init,"ax",%progbits
 101              		.align	2
 102              		.global	LVD_Init
 103              		.code	16
 104              		.thumb_func
 106              	LVD_Init:
 107              	.LFB1:
  40:C:/Users/b01252/Documents/Freescale/L4K/software/kinetis_kl46_sc/src/drivers/pmc\pmc.c **** //******************************************************************************
  41:C:/Users/b01252/Documents/Freescale/L4K/software/kinetis_kl46_sc/src/drivers/pmc\pmc.c **** void LVD_Init(void)
  42:C:/Users/b01252/Documents/Freescale/L4K/software/kinetis_kl46_sc/src/drivers/pmc\pmc.c **** {
 108              		.loc 1 42 0
 109              		.cfi_startproc
 110 0000 80B5     		push	{r7, lr}
 111              	.LCFI3:
 112              		.cfi_def_cfa_offset 8
 113              		.cfi_offset 7, -8
 114              		.cfi_offset 14, -4
 115 0002 00AF     		add	r7, sp, #0
 116              	.LCFI4:
 117              		.cfi_def_cfa_register 7
  43:C:/Users/b01252/Documents/Freescale/L4K/software/kinetis_kl46_sc/src/drivers/pmc\pmc.c **** /* setup LVD
  44:C:/Users/b01252/Documents/Freescale/L4K/software/kinetis_kl46_sc/src/drivers/pmc\pmc.c **** Low-Voltage Detect Voltage Select
  45:C:/Users/b01252/Documents/Freescale/L4K/software/kinetis_kl46_sc/src/drivers/pmc\pmc.c **** Selects the LVD trip point voltage (VLVD).
  46:C:/Users/b01252/Documents/Freescale/L4K/software/kinetis_kl46_sc/src/drivers/pmc\pmc.c **** 00 Low trip point selected (VLVD = VLVDL)
  47:C:/Users/b01252/Documents/Freescale/L4K/software/kinetis_kl46_sc/src/drivers/pmc\pmc.c **** 01 High trip point selected (VLVD = VLVDH)
  48:C:/Users/b01252/Documents/Freescale/L4K/software/kinetis_kl46_sc/src/drivers/pmc\pmc.c **** 10 Reserved
  49:C:/Users/b01252/Documents/Freescale/L4K/software/kinetis_kl46_sc/src/drivers/pmc\pmc.c **** 11 Reserved
  50:C:/Users/b01252/Documents/Freescale/L4K/software/kinetis_kl46_sc/src/drivers/pmc\pmc.c ****   */
  51:C:/Users/b01252/Documents/Freescale/L4K/software/kinetis_kl46_sc/src/drivers/pmc\pmc.c **** 	PMC_LVDSC1 =  PMC_LVDSC1_LVDRE_MASK |   //enable LVD Reset
 118              		.loc 1 51 0
 119 0004 0B4B     		ldr	r3, .L5
 120 0006 1122     		mov	r2, #17
 121 0008 1A70     		strb	r2, [r3]
  52:C:/Users/b01252/Documents/Freescale/L4K/software/kinetis_kl46_sc/src/drivers/pmc\pmc.c **** 	               PMC_LVDSC1_LVDV(1);   //Enable LVD Reset High level
  53:C:/Users/b01252/Documents/Freescale/L4K/software/kinetis_kl46_sc/src/drivers/pmc\pmc.c **** 
  54:C:/Users/b01252/Documents/Freescale/L4K/software/kinetis_kl46_sc/src/drivers/pmc\pmc.c ****         
  55:C:/Users/b01252/Documents/Freescale/L4K/software/kinetis_kl46_sc/src/drivers/pmc\pmc.c **** PMC_LVDSC2  = PMC_LVDSC2_LVWACK_MASK | 
 122              		.loc 1 55 0
 123 000a 0A4B     		ldr	r3, .L5
 124 000c 4322     		mov	r2, #67
 125 000e 5A70     		strb	r2, [r3, #1]
  56:C:/Users/b01252/Documents/Freescale/L4K/software/kinetis_kl46_sc/src/drivers/pmc\pmc.c ****               PMC_LVDSC2_LVWV(3) ;
  57:C:/Users/b01252/Documents/Freescale/L4K/software/kinetis_kl46_sc/src/drivers/pmc\pmc.c **** 
  58:C:/Users/b01252/Documents/Freescale/L4K/software/kinetis_kl46_sc/src/drivers/pmc\pmc.c **** 
  59:C:/Users/b01252/Documents/Freescale/L4K/software/kinetis_kl46_sc/src/drivers/pmc\pmc.c **** // ack to clear initial flags
  60:C:/Users/b01252/Documents/Freescale/L4K/software/kinetis_kl46_sc/src/drivers/pmc\pmc.c **** PMC_LVDSC1 |= PMC_LVDSC1_LVDACK_MASK; 
 126              		.loc 1 60 0
 127 0010 084B     		ldr	r3, .L5
 128 0012 084A     		ldr	r2, .L5
 129 0014 1278     		ldrb	r2, [r2]
 130 0016 D2B2     		uxtb	r2, r2
 131 0018 4021     		mov	r1, #64
 132 001a 0A43     		orr	r2, r1
 133 001c D2B2     		uxtb	r2, r2
 134 001e 1A70     		strb	r2, [r3]
  61:C:/Users/b01252/Documents/Freescale/L4K/software/kinetis_kl46_sc/src/drivers/pmc\pmc.c **** PMC_LVDSC2 |= PMC_LVDSC2_LVWACK_MASK;
 135              		.loc 1 61 0
 136 0020 044B     		ldr	r3, .L5
 137 0022 044A     		ldr	r2, .L5
 138 0024 5278     		ldrb	r2, [r2, #1]
 139 0026 D2B2     		uxtb	r2, r2
 140 0028 4021     		mov	r1, #64
 141 002a 0A43     		orr	r2, r1
 142 002c D2B2     		uxtb	r2, r2
 143 002e 5A70     		strb	r2, [r3, #1]
  62:C:/Users/b01252/Documents/Freescale/L4K/software/kinetis_kl46_sc/src/drivers/pmc\pmc.c **** 
  63:C:/Users/b01252/Documents/Freescale/L4K/software/kinetis_kl46_sc/src/drivers/pmc\pmc.c **** /* 
  64:C:/Users/b01252/Documents/Freescale/L4K/software/kinetis_kl46_sc/src/drivers/pmc\pmc.c **** LVWV if LVD high range selected
  65:C:/Users/b01252/Documents/Freescale/L4K/software/kinetis_kl46_sc/src/drivers/pmc\pmc.c **** 2.621
  66:C:/Users/b01252/Documents/Freescale/L4K/software/kinetis_kl46_sc/src/drivers/pmc\pmc.c **** 2.72
  67:C:/Users/b01252/Documents/Freescale/L4K/software/kinetis_kl46_sc/src/drivers/pmc\pmc.c **** 2.82
  68:C:/Users/b01252/Documents/Freescale/L4K/software/kinetis_kl46_sc/src/drivers/pmc\pmc.c **** 2.92
  69:C:/Users/b01252/Documents/Freescale/L4K/software/kinetis_kl46_sc/src/drivers/pmc\pmc.c **** LVDV if LVD low range selected
  70:C:/Users/b01252/Documents/Freescale/L4K/software/kinetis_kl46_sc/src/drivers/pmc\pmc.c **** 1.74
  71:C:/Users/b01252/Documents/Freescale/L4K/software/kinetis_kl46_sc/src/drivers/pmc\pmc.c **** 1.84
  72:C:/Users/b01252/Documents/Freescale/L4K/software/kinetis_kl46_sc/src/drivers/pmc\pmc.c **** 1.94
  73:C:/Users/b01252/Documents/Freescale/L4K/software/kinetis_kl46_sc/src/drivers/pmc\pmc.c **** 
  74:C:/Users/b01252/Documents/Freescale/L4K/software/kinetis_kl46_sc/src/drivers/pmc\pmc.c **** 
  75:C:/Users/b01252/Documents/Freescale/L4K/software/kinetis_kl46_sc/src/drivers/pmc\pmc.c **** */
  76:C:/Users/b01252/Documents/Freescale/L4K/software/kinetis_kl46_sc/src/drivers/pmc\pmc.c **** }
 144              		.loc 1 76 0
 145 0030 BD46     		mov	sp, r7
 146              		@ sp needed for prologue
 147 0032 80BD     		pop	{r7, pc}
 148              	.L6:
 149              		.align	2
 150              	.L5:
 151 0034 00D00740 		.word	1074253824
 152              		.cfi_endproc
 153              	.LFE1:
 155              		.section	.rodata
 156              		.align	2
 157              	.LC0:
 158 0000 5B4C5644 		.ascii	"[LVD_isr]LV DETECT interrupt occurred\000"
 158      5F697372 
 158      5D4C5620 
 158      44455445 
 158      43542069 
 159 0026 0000     		.align	2
 160              	.LC2:
 161 0028 5B4C5644 		.ascii	"[LVD_isr]LV WARNING interrupt occurred\000"
 161      5F697372 
 161      5D4C5620 
 161      5741524E 
 161      494E4720 
 162 004f 00       		.section	.text.pmc_lvd_isr,"ax",%progbits
 163              		.align	2
 164              		.global	pmc_lvd_isr
 165              		.code	16
 166              		.thumb_func
 168              	pmc_lvd_isr:
 169              	.LFB2:
  77:C:/Users/b01252/Documents/Freescale/L4K/software/kinetis_kl46_sc/src/drivers/pmc\pmc.c **** void pmc_lvd_isr(void)
  78:C:/Users/b01252/Documents/Freescale/L4K/software/kinetis_kl46_sc/src/drivers/pmc\pmc.c **** {
 170              		.loc 1 78 0
 171              		.cfi_startproc
 172 0000 80B5     		push	{r7, lr}
 173              	.LCFI5:
 174              		.cfi_def_cfa_offset 8
 175              		.cfi_offset 7, -8
 176              		.cfi_offset 14, -4
 177 0002 00AF     		add	r7, sp, #0
 178              	.LCFI6:
 179              		.cfi_def_cfa_register 7
  79:C:/Users/b01252/Documents/Freescale/L4K/software/kinetis_kl46_sc/src/drivers/pmc\pmc.c ****  
  80:C:/Users/b01252/Documents/Freescale/L4K/software/kinetis_kl46_sc/src/drivers/pmc\pmc.c ****   if (PMC_LVDSC1 &PMC_LVDSC1_LVDF_MASK){
 180              		.loc 1 80 0
 181 0004 134B     		ldr	r3, .L10
 182 0006 1B78     		ldrb	r3, [r3]
 183 0008 DBB2     		uxtb	r3, r3
 184 000a DBB2     		uxtb	r3, r3
 185 000c 5BB2     		sxtb	r3, r3
 186 000e 002B     		cmp	r3, #0
 187 0010 03DA     		bge	.L8
  81:C:/Users/b01252/Documents/Freescale/L4K/software/kinetis_kl46_sc/src/drivers/pmc\pmc.c ****    printf("[LVD_isr]LV DETECT interrupt occurred");
 188              		.loc 1 81 0
 189 0012 114B     		ldr	r3, .L10+4
 190 0014 181C     		mov	r0, r3
 191 0016 FFF7FEFF 		bl	printf
 192              	.L8:
  82:C:/Users/b01252/Documents/Freescale/L4K/software/kinetis_kl46_sc/src/drivers/pmc\pmc.c ****   }
  83:C:/Users/b01252/Documents/Freescale/L4K/software/kinetis_kl46_sc/src/drivers/pmc\pmc.c ****   if (PMC_LVDSC2 &PMC_LVDSC2_LVWF_MASK){
 193              		.loc 1 83 0
 194 001a 0E4B     		ldr	r3, .L10
 195 001c 5B78     		ldrb	r3, [r3, #1]
 196 001e DBB2     		uxtb	r3, r3
 197 0020 DBB2     		uxtb	r3, r3
 198 0022 5BB2     		sxtb	r3, r3
 199 0024 002B     		cmp	r3, #0
 200 0026 03DA     		bge	.L9
  84:C:/Users/b01252/Documents/Freescale/L4K/software/kinetis_kl46_sc/src/drivers/pmc\pmc.c ****    printf("[LVD_isr]LV WARNING interrupt occurred");
 201              		.loc 1 84 0
 202 0028 0C4B     		ldr	r3, .L10+8
 203 002a 181C     		mov	r0, r3
 204 002c FFF7FEFF 		bl	printf
 205              	.L9:
  85:C:/Users/b01252/Documents/Freescale/L4K/software/kinetis_kl46_sc/src/drivers/pmc\pmc.c ****   }
  86:C:/Users/b01252/Documents/Freescale/L4K/software/kinetis_kl46_sc/src/drivers/pmc\pmc.c ****  
  87:C:/Users/b01252/Documents/Freescale/L4K/software/kinetis_kl46_sc/src/drivers/pmc\pmc.c ****  // ack to clear initial flags
  88:C:/Users/b01252/Documents/Freescale/L4K/software/kinetis_kl46_sc/src/drivers/pmc\pmc.c ****  PMC_LVDSC1 |= PMC_LVDSC1_LVDACK_MASK; 
 206              		.loc 1 88 0
 207 0030 084B     		ldr	r3, .L10
 208 0032 084A     		ldr	r2, .L10
 209 0034 1278     		ldrb	r2, [r2]
 210 0036 D2B2     		uxtb	r2, r2
 211 0038 4021     		mov	r1, #64
 212 003a 0A43     		orr	r2, r1
 213 003c D2B2     		uxtb	r2, r2
 214 003e 1A70     		strb	r2, [r3]
  89:C:/Users/b01252/Documents/Freescale/L4K/software/kinetis_kl46_sc/src/drivers/pmc\pmc.c ****  PMC_LVDSC2 |= PMC_LVDSC2_LVWACK_MASK;
 215              		.loc 1 89 0
 216 0040 044B     		ldr	r3, .L10
 217 0042 044A     		ldr	r2, .L10
 218 0044 5278     		ldrb	r2, [r2, #1]
 219 0046 D2B2     		uxtb	r2, r2
 220 0048 4021     		mov	r1, #64
 221 004a 0A43     		orr	r2, r1
 222 004c D2B2     		uxtb	r2, r2
 223 004e 5A70     		strb	r2, [r3, #1]
  90:C:/Users/b01252/Documents/Freescale/L4K/software/kinetis_kl46_sc/src/drivers/pmc\pmc.c **** 
  91:C:/Users/b01252/Documents/Freescale/L4K/software/kinetis_kl46_sc/src/drivers/pmc\pmc.c **** }
 224              		.loc 1 91 0
 225 0050 BD46     		mov	sp, r7
 226              		@ sp needed for prologue
 227 0052 80BD     		pop	{r7, pc}
 228              	.L11:
 229              		.align	2
 230              	.L10:
 231 0054 00D00740 		.word	1074253824
 232 0058 00000000 		.word	.LC0
 233 005c 28000000 		.word	.LC2
 234              		.cfi_endproc
 235              	.LFE2:
 237              		.text
 238              	.Letext0:
 239              		.file 2 "C:/Users/b01252/Documents/Freescale/L4K/software/kinetis_kl46_sc/src/cpu/headers/MKL46Z4.
 240              		.file 3 "C:/Freescale/CW MCU v10.4/MCU/ARM_GCC_Support/ewl/EWL_C/include/cstdint"